(dp0
V55
p1
(lp2
F0.15917617082595825
aF0.07892672717571259
aF0.04097660630941391
aF0.033037975430488586
aF0.4019419848918915
aF0.4423538148403168
aF0.0403892956674099
aF0.14506614208221436
aF0.4325769245624542
aF0.023754529654979706
aF0.08439332246780396
aF0.11755333840847015
aF0.06627583503723145
aF0.11348725855350494
aF0.07114085555076599
aF0.07142491638660431
aF0.0611489973962307
aF0.1978590488433838
aF0.056589432060718536
aF0.19335629045963287
aF0.05206365883350372
aF0.03729447349905968
aF0.11104252189397812
aF0.06126774102449417
aF0.24395738542079926
aF0.5484037399291992
aF0.40924718976020813
aF0.020217185840010643
aF0.1349579095840454
aF0.06666216999292374
aF0.25283899903297424
aF0.038543056696653366
aF0.10325352847576141
aF0.06744799762964249
aF0.09839656203985214
aF0.049212146550416946
aF0.016535140573978424
aF0.06296345591545105
aF0.12256665527820587
aF0.12376342713832855
aF0.19067125022411346
aF0.10787410289049149
aF0.2139635682106018
aF0.1640900820493698
aF0.47919490933418274
aF0.03458999842405319
aF0.11471889168024063
aF0.2894923985004425
aF0.40710920095443726
aF0.1971207559108734
aF0.10627888888120651
aF0.09269921481609344
aF0.06292014569044113
aF0.030306918546557426
aF0.048502784222364426
aF0.030572477728128433
aF0.0350971519947052
aF0.5758078694343567
aF0.0611480250954628
aF0.05521570146083832
aF0.08068692684173584
aF0.01844046264886856
aF0.11373068392276764
aF0.04095391184091568
aF0.04545748606324196
aF0.07279589772224426
aF0.06411830335855484
aF0.09974630922079086
aF0.3922462463378906
aF0.051558151841163635
aF0.07867315411567688
aF0.09831379354000092
aF0.19082918763160706
aF0.12994307279586792
aF0.051745135337114334
aF0.06038596108555794
aF0.08618154376745224
aF0.08283812552690506
aF0.056070759892463684
aF0.058207981288433075
aF0.06811490654945374
aF0.042032256722450256
aF0.0724823996424675
aF0.05890457332134247
aF0.10400450229644775
aF0.18832652270793915
aF0.10764072090387344
aF0.14687243103981018
aF0.30850979685783386
aF0.02875402569770813
aF0.025895599275827408
aF0.07195613533258438
aF0.26845210790634155
aF0.16591718792915344
aF0.030710281804203987
aF0.06084132194519043
aF0.16524676978588104
aF0.1204545870423317
aF0.05835369974374771
aF0.06520693004131317
aF0.34611284732818604
aF0.24963557720184326
aF0.019132576882839203
aF0.04859696328639984
aF0.018813129514455795
aF0.13862749934196472
aF0.04101330414414406
aF0.1353742629289627
aF0.21625304222106934
aF0.1544831097126007
aF0.0193448718637228
aF0.06253782659769058
aF0.25350576639175415
aF0.2838776111602783
aF0.04785538837313652
aF0.10499950498342514
aF0.12205525487661362
aF0.03581423684954643
aF0.05614053085446358
aF0.09075775742530823
aF0.012402225285768509
aF0.053421005606651306
aF0.19485466182231903
aF0.08320364356040955
aF0.21222522854804993
aF0.0371265634894371
aF0.06381577998399734
aF0.0511319525539875
aF0.06986110657453537
aF0.16927030682563782
aF0.043708138167858124
aF0.0738309696316719
aF0.046810660511255264
aF0.15176016092300415
aF0.142034649848938
aF0.07890993356704712
aF0.09127177298069
aF0.14488200843334198
aF0.07205843180418015
aF0.07146195322275162
aF0.46046218276023865
aF0.05768311396241188
aF0.015456577762961388
aF0.0905543714761734
aF0.026284797117114067
aF0.054509423673152924
aF0.03782351687550545
aF0.06757976114749908
aF0.0830484926700592
aF0.04203139618039131
aF0.42731237411499023
aF0.12706850469112396
aF0.052366953343153
aF0.06415823101997375
aF0.058626774698495865
aF0.142096608877182
aF0.0288669653236866
aF0.09254243969917297
aF0.06536896526813507
aF0.057357750833034515
aF0.10262468457221985
aF0.08741624653339386
aF0.2760584354400635
aF0.26326867938041687
aF0.09443727880716324
aF0.0615629218518734
aF0.06182827055454254
aF0.8060775995254517
aF0.038447052240371704
aF0.20270097255706787
aF0.01673833467066288
aF0.05178499221801758
aF0.15564236044883728
aF0.09270625561475754
aF0.0452771931886673
aF0.036077361553907394
aF0.1231500655412674
aF0.11442290246486664
aF0.014995557256042957
aF0.0468255840241909
aF0.15531200170516968
aF0.015175319276750088
aF0.1406739503145218
aF0.09154784679412842
aF0.002659438643604517
aF0.19112779200077057
aF0.052242252975702286
aF0.0682603195309639
aF0.11977886408567429
aF0.1276278793811798
aF0.13133783638477325
aF0.053154073655605316
aF0.015299035236239433
aF0.05835110694169998
aF0.05089472979307175
aF0.08980462700128555
aF0.03806375712156296
aF0.115834079682827
aF0.04945773631334305
aF0.11339567601680756
aF0.22783902287483215
aF0.04133898764848709
aF0.06550176441669464
aF0.22725266218185425
aF0.14620213210582733
aF0.05522048845887184
aF0.043446965515613556
aF0.13009335100650787
aF0.02701985090970993
aF0.38989970088005066
aF0.09513285756111145
aF0.16320742666721344
aF0.10465611517429352
aF0.3196878433227539
aF0.43225592374801636
aF0.110170878469944
aF0.3721010684967041
aF0.0009873020462691784
aF0.10491547733545303
aF0.11111541092395782
aF0.03349509462714195
aF0.03646404668688774
aF0.03432576730847359
aF0.019868336617946625
aF0.5623111724853516
aF0.07389660179615021
aF0.042651236057281494
aF0.0765872448682785
aF0.03272717818617821
aF0.0620369091629982
aF0.05497579276561737
aF0.10180158168077469
aF0.05699799582362175
aF0.07115699350833893
aF0.055540427565574646
aF0.07695221155881882
aF0.09349219501018524
aF0.26917582750320435
aF0.12180399149656296
aF0.07460552453994751
aF0.21260607242584229
aF0.2347424328327179
aF0.033923059701919556
aF0.41579484939575195
aF0.04611627385020256
aF0.24117061495780945
aF0.3123992681503296
aF0.1409737914800644
aF0.1403692066669464
aF0.051793307065963745
aF0.14182062447071075
aF0.11010695993900299
aF0.002339164726436138
aF0.024382073432207108
aF0.0860503613948822
aF0.14389841258525848
aF0.07276787608861923
aF0.0825488269329071
aF0.17517216503620148
aF0.07101977616548538
aF0.10566442459821701
aF0.3629375398159027
aF0.05793558061122894
aF0.13923859596252441
aF0.1547362208366394
aF0.08256763964891434
aF0.15632647275924683
aF0.0925690084695816
aF0.03244702145457268
aF0.36525213718414307
aF0.029664942994713783
aF0.10861997306346893
aF0.07932478189468384
aF0.22125005722045898
aF0.26005038619041443
aF0.04733320698142052
aF0.1895557940006256
aF0.08403762429952621
aF0.26427268981933594
aF0.7315653562545776
aF0.09290128201246262
aF0.299527108669281
aF0.30967336893081665
aF0.11149394512176514
aF0.10513259470462799
aF0.1871829479932785
aF0.09895269572734833
aF0.06797853112220764
aF0.14150956273078918
aF0.10300647467374802
aF0.26997390389442444
aF0.08318100869655609
aF0.0902106836438179
aF0.08901107311248779
aF0.47061240673065186
aF0.037865057587623596
aF0.24796289205551147
aF0.04594777524471283
aF0.09322834014892578
aF0.034868426620960236
aF0.07758817076683044
aF0.04493547976016998
aF0.2799786627292633
aF0.046314746141433716
aF0.10015688091516495
aF0.16172026097774506
aF0.29689228534698486
aF0.15398992598056793
aF0.033074263483285904
aF0.057851701974868774
aF0.24177972972393036
aF0.05418097600340843
aF0.09500205516815186
aF0.07422726601362228
aF0.03578225523233414
aF0.18041910231113434
aF0.128526508808136
aF0.115152508020401
aF0.03885344788432121
aF0.04962863028049469
aF0.33500611782073975
aF0.06363846361637115
aF0.24953287839889526
aF0.029187407344579697
aF0.05833057314157486
aF0.015003666281700134
aF0.14865878224372864
aF0.1483307033777237
aF0.07154003530740738
aF0.05629422515630722
aF0.21262097358703613
aF0.18696752190589905
aF0.17917227745056152
aF0.059869907796382904
aF0.09897608309984207
aF0.019735604524612427
aF0.10782936960458755
aF0.11733715236186981
aF0.029026389122009277
aF0.036539074033498764
aF0.10799603164196014
aF0.036125700920820236
aF0.11660322546958923
aF0.09252090752124786
aF0.3321413993835449
aF0.04540005326271057
aF0.1098552942276001
aF0.20378373563289642
aF0.04407702386379242
aF0.14366751909255981
aF0.14130698144435883
aF0.06525171548128128
aF0.06716778874397278
aF0.08965568244457245
aF0.27585524320602417
aF0.09778864681720734
aF0.2905626893043518
aF0.16986757516860962
aF0.07595549523830414
aF0.04951631277799606
aF0.09051695466041565
aF0.13015791773796082
aF0.6995272040367126
aF0.16594882309436798
aF0.0997510701417923
aF0.19535405933856964
aF0.03402690216898918
aF0.12025625258684158
aF0.10489769279956818
aF0.1074167937040329
aF0.06257706135511398
aF0.09112939238548279
aF0.02052205242216587
aF0.07884402573108673
aF0.08872003853321075
aF0.07075300067663193
aF0.11978831887245178
aF0.19723956286907196
aF0.03342985361814499
aF0.0995921790599823
aF0.09675514698028564
aF0.21478116512298584
aF0.23864667117595673
aF0.0716066062450409
aF0.03529472276568413
aF0.13222089409828186
aF0.09994054585695267
aF0.06757014989852905
aF0.09190228581428528
aF0.07268960773944855
aF0.2745373547077179
aF0.028880219906568527
aF0.1513565182685852
aF0.2124226987361908
aF0.07429787516593933
aF0.16233889758586884
aF0.20201976597309113
aF0.07923643290996552
aF0.02967851236462593
aF0.20829255878925323
aF0.10153498500585556
aF0.06834186613559723
aF0.05489387363195419
aF0.17557543516159058
aF0.08493401110172272
aF0.07814136892557144
aF0.02225668728351593
aF0.3360387980937958
aF0.0824986919760704
aF0.0829533040523529
aF0.1099638044834137
aF0.15008403360843658
aF0.14017115533351898
aF0.1548100709915161
aF0.09906014055013657
aF0.1293240189552307
aF0.0263918898999691
aF0.0687144473195076
aF0.06370339542627335
aF0.2659013867378235
aF0.06650742143392563
aF0.04219468683004379
aF0.03997379541397095
aF0.05543975159525871
aF0.3846821188926697
aF0.19533540308475494
aF0.014086160808801651
aF0.1477334350347519
aF0.09361597150564194
aF0.23748454451560974
aF0.03850337862968445
aF0.07715214788913727
aF0.16459745168685913
aF0.10688447952270508
aF0.06617093086242676
aF0.1243334412574768
aF0.22273945808410645
aF0.09843768179416656
aF0.051188334822654724
aF0.20995765924453735
aF0.15817207098007202
aF0.0579964816570282
aF0.02321200631558895
aF0.07370670139789581
aF0.015069421380758286
aF0.19697070121765137
aF0.10164107382297516
aF0.0330316498875618
aF0.12215721607208252
aF0.0607648603618145
aF0.3053210973739624
aF0.5275231599807739
aF0.020111380144953728
aF0.12033122032880783
aF0.01654098741710186
aF0.11658557504415512
aF0.10231712460517883
aF0.0802244320511818
aF0.2808420956134796
aF0.4957822561264038
aF0.12696850299835205
aF0.09484882652759552
aF0.050385355949401855
aF0.0784841999411583
aF0.016779905185103416
aF0.07362575829029083
aF0.10313767939805984
aF0.07462769746780396
aF0.049473509192466736
aF0.20704829692840576
aF0.0754605084657669
aF0.04387799650430679
aF0.054009079933166504
aF0.1515405774116516
aF0.049651019275188446
aF0.036780111491680145
aF0.05498570576310158
aF0.27870216965675354
aF0.14686019718647003
aF0.21269440650939941
aF0.23133732378482819
aF0.09442514181137085
aF0.2865152060985565
aF0.08398415893316269
aF0.3571551442146301
aF0.20232069492340088
aF0.1291084587574005
aF0.10827809572219849
aF0.23764483630657196
aF0.01528097316622734
aF0.038112543523311615
aF0.08324535191059113
aF0.0699472427368164
aF0.06652101874351501
aF0.039878860116004944
aF0.08243124186992645
aF0.1586114466190338
aF0.08642791211605072
aF0.19919058680534363
aF0.11305218189954758
aF0.09092894196510315
aF0.024035591632127762
aF0.061451397836208344
aF0.06642722338438034
aF0.11659066379070282
aF0.03822268918156624
aF0.033750809729099274
aF0.07549235969781876
aF0.2072020322084427
aF0.1329706758260727
aF0.06552714854478836
aF0.11830632388591766
aF0.027195725589990616
aF0.4604417085647583
aF0.18060612678527832
aF0.03639981523156166
aF0.08367400616407394
aF0.060207001864910126
aF0.01692279614508152
aF0.13640227913856506
aF0.08542265743017197
aF0.04702306538820267
aF0.36108529567718506
aF0.024919021874666214
aF0.23859335482120514
aF0.05729062110185623
aF0.06797036528587341
aF0.02850501239299774
aF0.19395878911018372
aF0.041276995092630386
aF0.15045718848705292
aF0.1812399923801422
aF0.058513566851615906
aF0.3450274169445038
aF0.28357112407684326
aF0.02591521106660366
aF0.09299959242343903
aF0.2767062485218048
aF0.050509028136730194
aF0.1402243971824646
aF0.09445074945688248
aF0.035214196890592575
aF0.0342976376414299
aF0.2690976560115814
aF0.11554378271102905
aF0.009515410289168358
aF0.2618570625782013
aF0.22764930129051208
aF0.06667438894510269
aF0.013005162589251995
aF0.07642945647239685
aF0.12241880595684052
aF0.05439580976963043
aF0.060209862887859344
aF0.06754123419523239
aF0.06774745136499405
aF0.04679788649082184
aF0.05189023166894913
aF0.022062793374061584
aF0.11106444150209427
aF0.17250412702560425
aF0.05168911814689636
aF0.030822597444057465
aF0.07407423853874207
aF0.23980854451656342
aF0.366650253534317
aF0.052812352776527405
aF0.03740331903100014
aF0.07254035770893097
aF0.08180366456508636
aF0.05497158318758011
aF0.055893562734127045
aF0.3800521790981293
aF0.07076185941696167
aF0.18233981728553772
aF0.11787942796945572
aF0.09992393106222153
aF0.05941452458500862
aF0.03983944654464722
aF0.1445903331041336
aF0.0064651453867554665
aF0.06435602158308029
aF0.07755783200263977
aF0.03936900570988655
aF0.04564444348216057
aF0.07384292781352997
aF0.06604843586683273
aF0.06417377293109894
aF0.5058271288871765
aF0.11497069895267487
aF0.042443349957466125
aF0.13095644116401672
aF0.1198066845536232
aF0.02822360023856163
aF0.20047330856323242
aF0.18922623991966248
aF0.03225556015968323
aF0.008880955167114735
aF0.06455088406801224
aF0.043805334717035294
aF0.07410641014575958
aF0.11374206840991974
aF0.23984594643115997
aF0.17264971137046814
aF0.13477963209152222
aF0.08570121228694916
aF0.08676226437091827
aF0.02708870731294155
aF0.329254686832428
aF0.07728496938943863
aF0.11006094515323639
aF0.07975933700799942
aF0.05406845733523369
aF0.039609190076589584
aF0.09202750772237778
aF0.03737258166074753
aF0.07345741242170334
aF0.03944888710975647
aF0.06483884900808334
aF0.08674179017543793
aF0.0562504380941391
aF0.1891404092311859
aF0.037549931555986404
aF0.09484344720840454
aF0.10956078767776489
aF0.030555473640561104
aF0.06389932334423065
aF0.029611963778734207
aF0.2902034819126129
aF0.08363910019397736
aF0.6829590797424316
aF0.10934123396873474
aF0.047565825283527374
aF0.04812158644199371
aF0.0325169563293457
aF0.011638068594038486
aF0.056135546416044235
aF0.16024696826934814
aF0.04210112616419792
aF0.07347431778907776
aF0.35508695244789124
aF0.07564482092857361
aF0.1318439245223999
aF0.31828930974006653
aF0.17590343952178955
aF0.07756762206554413
aF0.06031004339456558
aF0.018950525671243668
aF0.008820107206702232
aF0.13156543672084808
aF0.7124525308609009
aF0.13876846432685852
aF0.017234042286872864
aF0.11595819890499115
aF0.06752973794937134
aF0.08605946600437164
aF0.2857127785682678
aF0.03990541398525238
aF0.19989067316055298
aF0.039393000304698944
aF0.023932894691824913
aF0.05051206052303314
aF0.8347882032394409
aF0.2272491753101349
aF0.09109009057283401
aF0.08026693761348724
aF0.1573588103055954
aF0.05006975680589676
aF0.05019412934780121
aF0.13718760013580322
aF0.08081331104040146
aF0.09672166407108307
aF0.024185221642255783
aF0.046018652617931366
aF0.18388284742832184
aF0.060969170182943344
aF0.049173273146152496
aF0.07359063625335693
aF0.06717702746391296
aF0.04369740933179855
aF0.09178204834461212
aF0.032839853316545486
aF0.0402827151119709
aF0.09454929828643799
aF0.044747453182935715
aF0.2545383870601654
aF0.07478734850883484
aF0.209470734000206
aF0.023658400401473045
aF0.09760540723800659
aF0.05756491795182228
aF0.06112124025821686
aF0.05769392102956772
aF0.05010807514190674
aF0.29112696647644043
aF0.0992673709988594
aF0.3967355489730835
aF0.13048458099365234
aF0.056364260613918304
aF0.3676486015319824
aF0.07881125807762146
aF0.07206452637910843
aF0.1568126380443573
aF0.20637688040733337
aF0.06280891597270966
aF0.06321609020233154
aF0.0589546337723732
aF0.07872279733419418
aF0.1387919932603836
aF0.20481427013874054
aF0.13683485984802246
aF0.08306092023849487
aF0.07794764637947083
aF0.016153007745742798
aF0.13807567954063416
aF0.05778592824935913
aF0.1900140941143036
aF0.1138635128736496
aF0.0924680233001709
aF0.15624460577964783
aF0.07915282249450684
aF0.09649310261011124
aF0.11462031304836273
aF0.3304838240146637
aF0.3719673156738281
aF0.04568098857998848
aF0.08944577723741531
aF0.11899419873952866
aF0.14433306455612183
aF0.09135274589061737
aF0.1885676383972168
aF0.04588225483894348
aF0.5615285038948059
aF0.02481185644865036
aF0.10102114081382751
aF0.019065439701080322
aF0.025939639657735825
aF0.22928082942962646
aF0.05298585444688797
aF0.06218678876757622
aF0.020493552088737488
aF0.08001681417226791
aF0.2122742384672165
aF0.08851027488708496
aF0.04573331028223038
aF0.31443148851394653
aF0.02598360925912857
aF0.06805768609046936
aF0.07754185050725937
aF0.11763930320739746
aF0.016009407117962837
aF0.06615173816680908
aF0.13222385942935944
aF0.21147890388965607
aF0.0364559106528759
aF0.12078337371349335
aF0.02284790761768818
aF0.014675178565084934
aF0.06076614931225777
aF0.05485524237155914
aF0.009463061578571796
aF0.12391182780265808
aF0.16456305980682373
aF0.1792212873697281
aF0.02990036830306053
aF0.06757228076457977
aF0.09247004985809326
aF0.058224525302648544
aF0.061394914984703064
aF0.010006023570895195
aF0.07084304839372635
aF0.06607426702976227
aF0.07359824329614639
aF0.07701681554317474
aF0.03764955699443817
aF0.12312985211610794
aF0.10061009973287582
aF0.10249227285385132
aF0.1235240250825882
aF0.20968163013458252
aF0.139390230178833
aF0.011801781132817268
aF0.14542865753173828
aF0.05562911927700043
aF0.1016044020652771
aF0.020182659849524498
aF0.13424304127693176
aF0.05951462686061859
aF0.03480089455842972
aF0.08636190742254257
aF0.20840653777122498
aF0.4899614751338959
aF0.24932482838630676
aF0.05977266654372215
aF0.17884168028831482
aF0.02001328580081463
aF0.03555998206138611
aF0.2995426058769226
aF0.06077303737401962
aF0.07624385505914688
aF0.12352558225393295
aF0.07228630781173706
aF0.10451560467481613
aF0.05749141797423363
aF0.07575706392526627
aF0.011175361461937428
aF0.24990130960941315
aF0.04489627107977867
aF0.20681679248809814
aF0.10860095918178558
aF0.0849689394235611
aF0.019410382956266403
aF0.02194608561694622
aF0.0910245031118393
aF0.14634296298027039
aF0.0730450451374054
aF0.1430928260087967
aF0.043822720646858215
aF0.03599601238965988
aF0.021172720938920975
aF0.05083862692117691
aF0.06237613782286644
aF0.13815945386886597
aF0.07517801225185394
aF0.26394444704055786
aF0.06798294186592102
aF0.055844616144895554
aF0.023729167878627777
aF0.7111440896987915
aF0.03642323613166809
aF0.13498321175575256
aF0.058716971427202225
aF0.33568936586380005
aF0.03425588831305504
aF0.030977217480540276
aF0.03567728400230408
aF0.04193452000617981
aF0.4607354402542114
aF0.06553852558135986
aF0.055361658334732056
aF0.09289851039648056
aF0.11498518288135529
aF0.13790413737297058
aF0.015126585960388184
aF0.047361597418785095
aF0.08324067294597626
aF0.06848173588514328
aF0.0861722007393837
aF0.07274911552667618
aF0.03840440884232521
aF0.1127861961722374
aF0.0975983589887619
aF0.0762396901845932
aF0.23850558698177338
aF0.16807091236114502
aF0.12589216232299805
aF0.20173540711402893
aF0.026059789583086967
aF0.04200839623808861
aF0.42032626271247864
aF0.05916685611009598
aF0.2078031450510025
aF0.02560347691178322
aF0.19468039274215698
aF0.08622084558010101
aF0.3400360345840454
aF0.09686614573001862
aF0.008791789412498474
aF0.07437771558761597
aF0.06435373425483704
aF0.020410142838954926
aF0.052425578236579895
aF0.2678585350513458
aF0.007244170643389225
aF0.3915863633155823
aF0.179547518491745
aF0.33266863226890564
aF0.05762188881635666
aF0.052416954189538956
aF0.07340087741613388
aF0.1626400649547577
aF0.027764223515987396
aF0.13762657344341278
aF0.029359916225075722
aF0.02455247938632965
aF0.11739431321620941
aF0.032190997153520584
aF0.0053911409340798855
aF0.056263651698827744
aF0.08168218284845352
aF0.2687796354293823
aF0.06012960523366928
aF0.07809248566627502
aF0.07550333440303802
aF0.15697279572486877
aF0.07655981928110123
aF0.055921658873558044
aF0.1090238094329834
aF0.06808501482009888
aF0.07071439921855927
aF0.05436628684401512
aF0.08587178587913513
aF0.10092252492904663
aF0.08110831677913666
aF0.04828326031565666
aF0.0949317216873169
aF0.06956616789102554
aF0.2080739438533783
aF0.05655556172132492
aF0.23764023184776306
aF0.04874052107334137
aF0.4216403365135193
aF0.246531143784523
aF0.027630964294075966
aF0.17998814582824707
aF0.060959652066230774
aF0.34224021434783936
aF0.06550333648920059
aF0.03218342363834381
aF0.04459979757666588
aF0.06604091078042984
aF1.1593122482299805
aF0.014660016633570194
aF0.026791460812091827
aF0.17620521783828735
aF0.17368096113204956
aF0.06198815628886223
aF0.10193908214569092
aF0.08726122230291367
aF0.08230835199356079
aF0.0368310809135437
aF0.10618818551301956
aF0.22284160554409027
aF0.2559816837310791
aF0.05186523497104645
aF0.17039597034454346
aF0.022282451391220093
aF0.05220204219222069
aF0.0810370147228241
aF0.2654600441455841
aF0.015818405896425247
aF0.03322003036737442
aF0.11450527608394623
aF0.02262767404317856
aF0.045201294124126434
aF0.07487981766462326
aF0.044831372797489166
aF0.09532429277896881
aF0.0842030867934227
aF0.06930577754974365
aF0.12753383815288544
aF0.1241753101348877
aF0.020363451912999153
aF0.02009091153740883
aF0.3083198666572571
aF0.06949120759963989
aF0.08460494875907898
aF0.0360114648938179
aF0.038851507008075714
aF0.18243953585624695
aF0.014586376957595348
aF0.1434132158756256
aF0.11437355726957321
aF0.1303739696741104
aF0.24977780878543854
aF0.04577186703681946
aF0.027957335114479065
aF0.2864687740802765
aF0.03788655251264572
aF0.050558798015117645
aF0.04974532127380371
aF0.053702209144830704
aF0.12136747688055038
aF0.05025763809680939
aF0.06699085980653763
aF0.12402518838644028
aF0.0633435994386673
aF0.04488963633775711
aF0.05748273432254791
aF0.07198965549468994
aF0.06373947858810425
aF0.2604109048843384
aF0.062224239110946655
aF0.0592164471745491
aF0.22005578875541687
aF0.06230340152978897
aF0.08624161779880524
aF0.013323821127414703
aF0.024403631687164307
aF0.252156525850296
aF0.6323024034500122
aF0.30773621797561646
aF0.5899627804756165
aF0.05808917433023453
aF0.01887299120426178
aF0.10424771159887314
aF0.1682003289461136
aF0.09310532361268997
aF0.06226341426372528
aF0.0369388610124588
aF0.08218266814947128
aF0.027646919712424278
aF0.2508128881454468
aF0.058763355016708374
aF0.20812278985977173
aF0.206117182970047
aF0.16664539277553558
aF0.1577269583940506
aF0.07792302966117859
aF0.4225597381591797
aF0.08325396478176117
aF0.13715380430221558
aF0.05854499340057373
aF0.1055002361536026
aF0.05202885717153549
aF0.15546776354312897
aF0.12626951932907104
aF0.2101542204618454
aF0.10523425787687302
aF0.03679491952061653
aF0.10415409505367279
aF0.04348190501332283
aF0.018875692039728165
aF0.0982622429728508
aF0.06620126962661743
aF0.03062848187983036
aF0.07680957019329071
aF0.1335284560918808
aF0.014643033035099506
aF0.14826752245426178
aF0.07696948200464249
aF0.10652982443571091
aF0.2099999487400055
aF0.053236499428749084
aF0.11169883608818054
aF0.060590896755456924
aF0.2273218333721161
aF0.04066915437579155
aF0.04987141489982605
aF0.060993533581495285
aF0.11114773899316788
aF0.02562333457171917
aF0.16491924226284027
aF0.03456217050552368
aF0.06699235737323761
aF0.03614305332303047
aF0.11730970442295074
aF0.07087258994579315
aF0.09298564493656158
aF0.12485502660274506
aF0.2373431921005249
aF0.10878187417984009
aF0.1891443431377411
aF0.06269623339176178
aF0.0825088769197464
aF0.021814584732055664
aF0.1357942521572113
aF0.05554680898785591
aF0.3973371684551239
aF0.21907275915145874
aF0.036280494183301926
aF0.017591336742043495
aF0.04069964587688446
aF0.2758314907550812
aF0.050562534481287
aF0.28199219703674316
aF0.23064608871936798
aF0.08726789057254791
aF0.2457391321659088
aF0.040170036256313324
aF0.04874768480658531
aF0.3693739175796509
aF0.132210373878479
aF0.030829349532723427
aF0.087124302983284
aF0.3499823212623596
aF0.10330319404602051
aF0.14747649431228638
aF0.08185812830924988
aF0.20534035563468933
aF0.26303595304489136
aF0.15993645787239075
aF0.1570572853088379
aF0.07582445442676544
aF0.25815343856811523
aF0.06326256692409515
aF0.07047530263662338
aF0.05427346006035805
aF0.11981123685836792
aF0.16518448293209076
aF0.02963942289352417
aF0.05089562013745308
aF0.13326409459114075
aF0.04379178211092949
aF0.02502092719078064
aF0.06269879639148712
aF0.11843743920326233
aF0.06205933168530464
aF0.056620776653289795
aF0.06217782944440842
aF0.14490389823913574
aF0.07455405592918396
aF0.1288699209690094
aF0.6666794419288635
aF0.04890918731689453
aF0.25241386890411377
aF0.016553295776247978
aF0.05545753240585327
aF0.0900401622056961
aF0.3172861337661743
aF0.02991469018161297
aF0.1681058555841446
aF0.044553834944963455
aF0.06661669164896011
aF0.14560741186141968
aF0.126180499792099
aF0.1018194854259491
aF0.06916011869907379
aF0.025984041392803192
aF0.12384870648384094
aF0.21959298849105835
aF0.022914614528417587
aF0.09714578092098236
aF0.0784168541431427
aF0.3107355833053589
aF0.11032767593860626
aF0.06468617171049118
aF0.08630315959453583
aF0.0860455259680748
aF0.04538676142692566
aF0.17283886671066284
aF0.06940673291683197
aF0.09026625007390976
aF0.06607607007026672
aF0.09671040624380112
aF0.044712215662002563
aF0.09180694073438644
aF0.032943908125162125
aF0.0894223302602768
aF0.05203596130013466
aF0.19134801626205444
aF0.029044507071375847
aF0.20795661211013794
aF0.010768873617053032
aF0.2036859542131424
aF0.03520595282316208
aF0.2278231978416443
aF0.2989426553249359
aF0.10972077399492264
aF0.0194877739995718
aF0.026219507679343224
aF0.09576743841171265
aF0.16227105259895325
aF0.09043516218662262
aF0.08425593376159668
aF0.028608836233615875
aF0.2233038693666458
aF0.028322678059339523
aF0.08252324163913727
aF0.14449480175971985
aF0.06585714966058731
aF0.08572694659233093
aF0.16507722437381744
aF0.13232721388339996
aF0.18603770434856415
aF0.15274371206760406
aF0.0759681761264801
aF0.24001437425613403
aF0.03103659301996231
aF0.027320580556988716
aF0.07764513045549393
aF0.12212878465652466
aF0.43754661083221436
aF0.05657558888196945
aF0.0826125219464302
aF0.05615259334445
aF0.33591145277023315
aF0.27218759059906006
aF0.09943868219852448
aF0.062031324952840805
aF0.12442556023597717
aF0.02122470922768116
aF0.01795589178800583
aF0.10593937337398529
aF0.11621180921792984
aF0.029464274644851685
aF0.06981746852397919
aF0.07561074942350388
aF0.10210194438695908
aF0.1272565722465515
aF0.09466307610273361
aF0.17049752175807953
aF0.05501547455787659
aF0.08396126329898834
aF0.38612139225006104
aF0.1061726063489914
aF0.09893064200878143
aF0.19361132383346558
aF0.027646981179714203
aF0.15586307644844055
aF0.04959534481167793
aF0.04930334538221359
aF0.007924173027276993
aF0.13958612084388733
aF0.37884894013404846
aF0.0687570869922638
aF0.1028997153043747
aF0.5986121296882629
aF0.02829178236424923
aF0.08186659216880798
aF0.2731555700302124
aF0.06515667587518692
aF0.10914330184459686
aF0.06845049560070038
aF0.12586002051830292
aF0.2531839609146118
aF0.13034355640411377
aF0.10620079189538956
aF0.027566447854042053
aF0.1737096756696701
aF0.20524999499320984
aF0.08794735372066498
aF0.1417572796344757
aF0.021409422159194946
aF0.03997262939810753
aF0.16387206315994263
aF0.10181310772895813
aF0.14787723124027252
aF0.03480640798807144
aF0.1613406538963318
aF0.08880382776260376
aF0.08086282759904861
aF0.0711822360754013
aF0.038916077464818954
aF0.039137713611125946
aF0.07113543897867203
aF0.13040658831596375
aF0.07762009650468826
aF0.19940848648548126
aF0.11384621262550354
aF0.1938183307647705
aF0.03821171075105667
aF0.11435718834400177
aF0.03791837394237518
aF0.12396541982889175
aF0.05752772092819214
aF0.03828266263008118
aF0.0574299655854702
aF0.39926594495773315
aF0.3212113380432129
aF0.11485797166824341
aF0.11065426468849182
aF0.08713416755199432
aF0.35888418555259705
aF0.06759274005889893
aF0.026524415239691734
aF0.34742236137390137
aF0.05039966106414795
aF0.1955934315919876
aF0.03697482496500015
aF0.07504172623157501
aF0.05240854620933533
aF0.11932684481143951
aF0.05623780936002731
aF0.04979803413152695
aF0.07879574596881866
aF0.10543452203273773
aF0.3319680094718933
aF0.07035976648330688
aF0.04941638559103012
aF0.07689348608255386
aF0.0702991932630539
aF0.05270426720380783
aF0.10721303522586823
aF0.35889995098114014
aF0.10276662558317184
aF0.18349406123161316
aF0.036612000316381454
aF0.14284850656986237
aF0.10479462891817093
aF0.11933287978172302
aF0.13588126003742218
aF0.011234985664486885
aF0.2763894498348236
aF0.04310035705566406
aF0.12768353521823883
aF0.11618873476982117
aF0.02987058088183403
aF0.09199247509241104
aF0.2911331057548523
aF0.16461241245269775
aF0.06728877872228622
aF0.19914358854293823
aF0.043217338621616364
aF0.5489751100540161
aF0.1642666906118393
aF0.15289455652236938
aF0.4673705995082855
aF0.14672912657260895
aF0.036963529884815216
aF0.40686482191085815
aF0.03496304154396057
aF0.05628962442278862
aF0.05947772413492203
aF0.46496185660362244
aF0.09555336833000183
aF0.258495569229126
aF0.15852120518684387
aF0.1325380951166153
aF0.15914809703826904
aF0.09402702748775482
aF0.04621324688196182
aF0.035301268100738525
aF0.03839268535375595
aF0.28400948643684387
aF0.06841772794723511
aF0.027051158249378204
aF0.08444573730230331
aF0.0961465984582901
aF0.12528575956821442
aF0.093074269592762
aF0.016389334574341774
aF0.45931482315063477
aF0.45978981256484985
aF0.12176299095153809
aF0.15606272220611572
aF0.3225862979888916
aF0.0907464548945427
aF0.3429991602897644
aF0.02585873380303383
aF0.02613334357738495
aF0.11357390880584717
aF0.060957882553339005
aF0.06313197314739227
aF0.1767677366733551
aF0.0707005187869072
aF0.08304586261510849
aF0.1277136206626892
aF0.08833549916744232
aF0.05842963233590126
aF0.24950778484344482
aF0.16553714871406555
aF0.050370149314403534
aF0.08438141644001007
aF0.06334394961595535
aF0.04550032690167427
aF0.18883635103702545
aF0.19438596069812775
aF0.0234309583902359
aF0.08368159085512161
aF0.08773095905780792
aF0.34420379996299744
aF0.10640484094619751
aF0.05681309476494789
aF0.05260811373591423
aF0.028639495372772217
aF0.023589447140693665
aF0.42367783188819885
aF0.013067379593849182
aF0.03703637421131134
aF0.025416914373636246
aF0.057117313146591187
aF0.10266528278589249
aF0.04669738560914993
aF0.027336252853274345
aF0.20134171843528748
aF0.07687807083129883
aF0.09812664240598679
aF0.06901684403419495
aF0.013083076104521751
aF0.23296469449996948
aF0.13264770805835724
aF0.19535253942012787
aF0.11023920029401779
aF0.1653154045343399
aF0.05466107279062271
aF0.06678751111030579
aF0.17213374376296997
aF0.40584954619407654
aF0.04397212713956833
aF0.30786049365997314
aF0.038736578077077866
aF0.11691735684871674
aF0.059926509857177734
aF0.04827641695737839
aF0.049680471420288086
aF0.04591981694102287
aF0.14738667011260986
aF0.04978632926940918
aF0.1575855314731598
aF0.21218277513980865
aF0.2566677927970886
aF0.048657458275556564
aF0.0814317986369133
aF0.013697849586606026
aF0.08759699761867523
aF0.11222666501998901
aF0.08820590376853943
aF0.011197986081242561
aF0.12549659609794617
aF0.43078863620758057
aF0.05275360494852066
aF0.08414901047945023
aF0.0725545808672905
aF0.8052002191543579
aF0.20747095346450806
aF0.14460024237632751
aF0.10157912224531174
aF0.022445449605584145
aF0.17474138736724854
aF0.035616062581539154
aF0.1572393923997879
aF0.05466528981924057
aF0.06137476861476898
aF0.2228468805551529
aF0.0989992767572403
aF0.2940903902053833
aF0.05047975853085518
aF0.02457495778799057
aF0.07020819187164307
aF0.05380262807011604
aF0.18949121236801147
aF0.0631352961063385
aF0.13830119371414185
aF0.09337401390075684
aF0.2358015775680542
aF0.08826902508735657
aF0.14086438715457916
aF0.07899704575538635
aF0.05465991050004959
aF0.3195602297782898
aF0.09497658908367157
aF0.06120462715625763
aF0.06777513772249222
aF0.03486212342977524
aF0.12259884923696518
aF0.07142345607280731
aF0.074276402592659
aF0.04276280105113983
aF0.09412139654159546
aF0.033350784331560135
aF0.06852809339761734
aF0.3074086904525757
aF0.022301388904452324
aF0.05796559527516365
aF0.4369310736656189
aF0.21664384007453918
aF0.07348652184009552
aF0.03606272488832474
aF0.28207647800445557
aF0.023041265085339546
aF0.08664596080780029
aF0.0916035920381546
aF0.04095114395022392
aF0.5606867671012878
aF0.08491771668195724
aF0.2215842306613922
aF0.0413794107735157
aF0.3921170234680176
aF0.06417141854763031
aF0.058077502995729446
aF0.048998743295669556
aF0.1451197862625122
aF0.03236238285899162
aF0.06566920131444931
aF0.11656058579683304
aF0.2537374794483185
aF0.202421173453331
aF0.0587872639298439
aF0.05367942899465561
aF0.22839190065860748
aF0.14889933168888092
aF0.11640889197587967
aF0.028386514633893967
aF0.08268944919109344
aF0.06143934279680252
aF0.08397319167852402
aF0.15310919284820557
aF0.07343203574419022
aF0.09684382379055023
aF0.022346962243318558
aF0.06399714946746826
aF0.03681657090783119
aF0.0778130292892456
aF0.07111276686191559
aF0.07290361821651459
aF0.12483790516853333
aF0.04783438518643379
aF0.3560790419578552
aF0.11598037928342819
aF0.09218292683362961
aF0.036947380751371384
aF0.05274412781000137
aF0.032435446977615356
aF0.061174992471933365
aF0.05788319185376167
aF0.0815369114279747
aF0.1673154979944229
aF0.0848737359046936
aF0.040436748415231705
aF0.02343391813337803
aF0.07246927171945572
aF0.10454662889242172
aF0.12712350487709045
aF0.062040627002716064
aF0.032649122178554535
aF0.1776905357837677
aF0.059309180825948715
aF0.5069054961204529
aF0.11992789804935455
aF0.07367672026157379
aF0.03376370295882225
aF0.06705905497074127
aF0.14306479692459106
aF0.24894443154335022
aF0.16886208951473236
aF0.1202077716588974
aF0.1584201157093048
aF0.04375200718641281
aF0.07886157184839249
aF0.05077055096626282
aF0.08756152540445328
aF0.07066204398870468
aF0.03074735216796398
aF0.05654299631714821
aF0.1567055881023407
aF0.056350987404584885
aF0.14882850646972656
aF0.20817461609840393
aF0.06210191920399666
aF0.12271564453840256
aF0.24922534823417664
aF0.1477019339799881
aF0.06850965321063995
aF0.10945979505777359
aF0.01623854786157608
aF0.13214872777462006
aF0.05704239010810852
aF0.055840179324150085
aF0.06707368046045303
aF0.11360155045986176
aF0.05372617766261101
aF0.02817891538143158
aF0.08122332394123077
aF0.09153604507446289
aF0.5677273869514465
aF0.054658953100442886
aF0.2823578119277954
aF0.25354886054992676
aF0.0894661694765091
aF0.16824384033679962
aF0.06452745199203491
aF0.35965782403945923
aF0.09863094985485077
aF0.06268111616373062
aF0.12815730273723602
aF0.03281407058238983
aF0.04678582772612572
aF0.240459606051445
aF0.05483759939670563
aF0.14528854191303253
aF0.048314642161130905
aF0.037409648299217224
aF0.054449427872896194
aF0.07026463747024536
aF0.019157737493515015
aF0.11163432896137238
aF0.014591739512979984
aF0.0194886215031147
aF0.08376237750053406
aF0.358603835105896
aF0.08742747455835342
aF0.08496174216270447
aF0.26296672224998474
aF0.3349325656890869
aF0.03358297049999237
aF0.010797077789902687
aF0.05288653075695038
aF0.04539380595088005
aF0.031951285898685455
aF0.34938845038414
aF0.0408753827214241
aF0.04333264008164406
aF0.08630817383527756
aF0.033140525221824646
aF0.293987900018692
aF0.0057712155394256115
aF0.19334658980369568
aF0.061342328786849976
aF0.11575430631637573
aF0.1866142451763153
aF0.09138472378253937
aF0.1500610113143921
aF0.1281755268573761
aF0.0855257660150528
aF0.0660988837480545
aF0.06910288333892822
aF0.09318385273218155
aF0.03651368245482445
aF0.054246220737695694
aF0.044866569340229034
aF0.027522223070263863
aF0.012492036446928978
aF0.5064699053764343
aF0.0714094266295433
aF0.14762791991233826
aF0.12491953372955322
aF0.196060448884964
aF0.2374732792377472
aF0.052769288420677185
aF0.09606774896383286
aF0.02197745069861412
aF0.02980085089802742
aF0.08922809362411499
aF0.05844923481345177
aF0.02379264123737812
aF0.09010748565196991
aF0.10889901220798492
aF0.12432576715946198
aF0.07616980373859406
aF0.11365222185850143
aF0.10177387297153473
aF0.059613700956106186
aF0.26657283306121826
aF0.07498505711555481
aF0.05050395056605339
aF0.14570929110050201
aF0.044620729982852936
aF0.08137381821870804
aF0.06840155273675919
aF0.464241623878479
aF0.24212460219860077
aF0.030497362837195396
aF0.04457622766494751
aF0.0516345277428627
aF0.05739188194274902
aF0.03297560662031174
aF0.12102442979812622
aF0.23624391853809357
aF0.16955333948135376
aF0.3857947587966919
aF0.009647936560213566
aF0.05013798922300339
aF0.1316772997379303
aF0.06885689496994019
aF0.06321489810943604
aF0.07176680862903595
aF0.20600806176662445
aF0.2429393082857132
aF0.28134921193122864
aF0.017811335623264313
aF0.05204673111438751
aF0.0358932726085186
aF0.11273986101150513
aF0.07730665802955627
aF0.07980166375637054
aF0.06161888688802719
aF0.04643503949046135
aF0.07904721796512604
aF0.019565623253583908
aF0.03858254849910736
aF0.009828735142946243
aF0.0030146250501275063
aF0.04540775343775749
aF0.04252205044031143
aF0.17977754771709442
aF0.09753216803073883
aF0.07584331184625626
aF0.07615633308887482
aF0.19336172938346863
aF0.04985402524471283
aF0.14145776629447937
aF0.023738713935017586
aF0.06685717403888702
aF0.036733128130435944
aF0.27169322967529297
aF0.2655802369117737
aF0.03201686963438988
aF0.041256409138441086
aF0.0368095338344574
aF0.5153403282165527
aF0.24719740450382233
aF0.29290926456451416
aF0.11860913038253784
aF0.07825945317745209
aF0.13977566361427307
aF0.11370504647493362
aF0.04788313806056976
aF0.10016219317913055
aF0.035644978284835815
aF0.11206375062465668
aF0.20659679174423218
aF0.09474676847457886
aF0.050420451909303665
aF0.09158946573734283
aF0.3264161944389343
aF0.036039553582668304
aF0.14555007219314575
aF0.12118780612945557
aF0.4900474548339844
aF0.023477189242839813
aF0.32306307554244995
aF0.08688003569841385
aF0.09545616805553436
aF0.44996166229248047
aF0.03483095392584801
aF0.192238911986351
aF0.23333480954170227
aF0.05379258841276169
aF0.05934092402458191
aF0.061172425746917725
aF0.017118100076913834
aF0.1913186013698578
aF0.35438472032546997
aF0.27994075417518616
aF0.07406686246395111
aF0.10422403365373611
aF0.160215824842453
aF0.04281112924218178
aF0.17754912376403809
aF0.015190313570201397
aF0.030759047716856003
aF0.022207804024219513
aF0.6003447771072388
aF0.39689457416534424
aF0.07387293875217438
aF0.07905904948711395
aF0.2237733006477356
aF0.12900416553020477
aF0.16011032462120056
aF0.20837470889091492
aF0.11361106485128403
aF0.05292604863643646
aF0.10465367883443832
aF0.04463539272546768
aF0.056527771055698395
aF0.3723796308040619
aF0.06944833695888519
aF0.049401041120290756
aF0.038874510675668716
aF0.05223844200372696
aF0.0543951690196991
aF0.08100814372301102
aF0.03434883430600166
aF0.1350313425064087
aF0.054023440927267075
aF0.3980256915092468
aF0.10158613324165344
aF0.04965604096651077
aF0.11294519901275635
aF0.12913982570171356
aF0.0429418571293354
aF0.11782260239124298
aF0.04695230349898338
aF0.05155123770236969
aF0.052709393203258514
aF0.04683108255267143
aF0.07417913526296616
aF0.055831391364336014
aF0.14689385890960693
aF0.09303560853004456
aF0.07115577161312103
aF0.05015227943658829
aF0.08536189794540405
aF0.025755761191248894
aF0.167792409658432
aF0.06176174059510231
aF0.0700303465127945
aF0.0654180645942688
aF0.02743157371878624
aF0.160428985953331
aF0.14465317130088806
aF0.16856004297733307
aF0.09802372753620148
aF0.3872760534286499
aF0.07799273729324341
aF0.0461958572268486
aF0.07280439883470535
aF0.051975272595882416
aF0.06568403542041779
aF0.07268507033586502
aF0.032846324145793915
aF0.3584836721420288
aF0.10294656455516815
aF0.09473126381635666
aF0.08498206734657288
aF0.1806567907333374
aF0.012905025854706764
aF0.13059167563915253
aF0.12213365733623505
aF0.07492171227931976
aF0.05510528013110161
aF0.07419100403785706
aF0.13946665823459625
aF0.08171695470809937
aF0.1686035543680191
aF0.09987065196037292
aF0.08467857539653778
aF0.036425914615392685
aF0.17260122299194336
aF0.1790083348751068
aF0.025680281221866608
aF0.0690302699804306
aF0.04103943333029747
aF0.19488316774368286
aF0.14774684607982635
aF0.03200113773345947
aF0.021751977503299713
aF0.10675011575222015
aF0.04318491369485855
aF0.015593108721077442
aF0.045989956706762314
aF0.2659567594528198
aF0.08091260492801666
aF0.02426334284245968
aF0.13024473190307617
aF0.11369643360376358
aF0.059312596917152405
aF0.054831333458423615
aF0.06407438963651657
aF0.2516864538192749
aF0.606728196144104
aF0.04114110395312309
aF0.03420267999172211
aF0.13886010646820068
aF0.10290858149528503
aF0.17087769508361816
aF0.041126951575279236
aF0.050722502171993256
aF0.02851095423102379
aF0.06918227672576904
aF0.1399175077676773
aF0.04094921797513962
aF0.060532279312610626
aF0.05884125828742981
aF0.0776173323392868
aF0.06282464414834976
aF0.12922577559947968
aF0.11031751334667206
aF0.011906731873750687
aF0.0523524209856987
aF0.08065079152584076
aF0.08727681636810303
aF0.08786779642105103
aF0.31380680203437805
aF0.06713223457336426
aF0.045637063682079315
aF0.19510731101036072
aF0.10841862857341766
aF0.18485525250434875
aF0.06442110985517502
aF0.13120512664318085
aF0.05084722116589546
aF0.03748413547873497
aF0.2330947369337082
aF0.22715133428573608
aF0.1293751299381256
aF0.3483451306819916
aF0.06634627282619476
aF0.0777743011713028
aF0.1426638960838318
aF0.0761299580335617
aF0.16445356607437134
aF0.06472483277320862
aF0.019952327013015747
aF0.13932979106903076
aF0.05386672168970108
aF0.12593725323677063
aF0.12665313482284546
aF0.04926762357354164
aF0.5326305627822876
aF0.12395697087049484
aF0.5106231570243835
aF0.11745092272758484
aF0.02768106944859028
aF0.1398501992225647
aF0.11299950629472733
aF0.06472840905189514
aF0.07048092782497406
aF0.040851347148418427
aF0.2194981724023819
aF0.634748101234436
aF0.17373144626617432
aF0.024223415181040764
aF0.12028390169143677
aF0.046570729464292526
aF0.12549997866153717
aF0.1786341816186905
aF0.11277428269386292
aF0.049554258584976196
aF0.08270547538995743
aF0.1637570559978485
aF0.06559596210718155
aF0.03946572542190552
aF0.02545006014406681
aF0.05806351453065872
aF0.026834659278392792
aF0.08569350838661194
aF0.021230200305581093
aF0.06332849711179733
aF0.021756723523139954
aF0.22690750658512115
aF0.07598738372325897
aF0.08879613876342773
aF0.07075096666812897
aF0.18504895269870758
aF0.11060909181833267
aF0.18229956924915314
aF0.08945826441049576
aF0.08010335266590118
aF0.17875871062278748
aF0.044047918170690536
aF0.11364826560020447
aF0.018545640632510185
aF0.24816928803920746
aF0.12484833598136902
aF0.03464322164654732
aF0.0644109696149826
aF0.2519575357437134
aF0.08688203990459442
aF0.0618908628821373
aF0.06279891729354858
aF0.050224773585796356
aF0.049431320279836655
aF0.02662358060479164
aF0.044483691453933716
aF0.10377774387598038
aF0.03319931402802467
aF0.09127642214298248
aF0.059630490839481354
aF0.2584834098815918
aF0.024559225887060165
aF0.025883827358484268
aF0.2702701687812805
aF0.04832691699266434
aF0.11643928289413452
aF0.2980306148529053
aF0.06591881811618805
aF0.16106769442558289
aF0.12278782576322556
aF0.12233421951532364
aF0.06529401987791061
aF0.17794200778007507
aF0.08415378630161285
aF0.04490453749895096
aF0.4280872642993927
aF0.18904781341552734
aF0.0869487002491951
aF0.11072954535484314
aF0.033497415482997894
aF0.011666999198496342
aF0.04485432431101799
aF0.06376325339078903
aF0.15248450636863708
aF0.043063584715127945
aF0.10439996421337128
aF0.45047980546951294
aF0.10252407193183899
aF0.08979228138923645
aF0.12542665004730225
aF0.05721864104270935
aF0.21252311766147614
aF0.17427968978881836
aF0.14764806628227234
aF0.06357868760824203
aF0.10746219754219055
aF0.3578375577926636
aF0.07405006140470505
aF0.04702872410416603
aF0.10824979096651077
aF0.05290842056274414
aF0.27027586102485657
aF0.17451636493206024
aF0.03664066642522812
aF0.02630445547401905
aF0.07157862186431885
aF0.022383883595466614
aF0.049000199884176254
aF0.07518945634365082
aF0.050655536353588104
aF0.08061996847391129
aF0.11918996274471283
aF0.018841253593564034
aF0.04755457863211632
aF0.6624794006347656
aF0.029605094343423843
aF0.09500185400247574
aF0.19369906187057495
aF0.07404232025146484
aF0.16021405160427094
aF0.055955372750759125
aF0.044035643339157104
aF0.028288403525948524
aF0.052029311656951904
aF0.11687271296977997
aF0.09092003107070923
aF0.039242222905159
aF0.0927642434835434
aF0.028991157189011574
aF0.032521314918994904
aF0.09183995425701141
aF0.10150006413459778
aF0.02691536396741867
aF0.19878250360488892
aF0.09970609843730927
aF0.055540964007377625
aF0.1359049677848816
aF0.14690253138542175
aF0.023806234821677208
aF0.0292627215385437
aF0.10109968483448029
aF0.05272623151540756
aF0.13953620195388794
aF0.04394332319498062
aF0.10905705392360687
aF0.059597183018922806
aF0.16760873794555664
aF0.1204419732093811
aF0.053909800946712494
aF0.029152104631066322
aF0.04147385060787201
aF0.12445617467164993
aF0.23972390592098236
aF0.04845621436834335
aF0.07744347304105759
aF0.47759607434272766
aF0.44193539023399353
aF0.06531864404678345
aF0.021647954359650612
aF0.019197411835193634
aF0.009879673831164837
aF0.11326692998409271
aF0.4479450583457947
aF0.1033094972372055
aF0.11965363472700119
aF0.12641799449920654
aF0.13316860795021057
aF0.07231578230857849
aF0.352871835231781
aF0.48822301626205444
aF0.07286784052848816
aF0.10311195999383926
aF0.027363207191228867
aF0.08461803197860718
aF0.17973673343658447
aF0.07906172424554825
aF0.07800264656543732
aF0.018346847966313362
asV25
p3
(lp4
F0.13951456546783447
aF0.04900665581226349
aF0.0646742507815361
aF0.08570915460586548
aF0.5091711282730103
aF0.3894336223602295
aF0.020434454083442688
aF0.07948145270347595
aF0.25856536626815796
aF0.027959609404206276
aF0.05991286784410477
aF0.19811628758907318
aF0.06986534595489502
aF0.051175154745578766
aF0.06965286284685135
aF0.09267472475767136
aF0.050462402403354645
aF0.07666441798210144
aF0.017094910144805908
aF0.20309396088123322
aF0.030497541651129723
aF0.048022933304309845
aF0.07845176756381989
aF0.05678441748023033
aF0.16693149507045746
aF1.0239107608795166
aF0.1743239164352417
aF0.06953893601894379
aF0.08369268476963043
aF0.02720535546541214
aF0.3195556104183197
aF0.04308495298027992
aF0.06174127757549286
aF0.029394110664725304
aF0.08589047193527222
aF0.05461350083351135
aF0.036506906151771545
aF0.0232986006885767
aF0.10123120993375778
aF0.07894030213356018
aF0.39493826031684875
aF0.06930696964263916
aF0.1426432877779007
aF0.06488296389579773
aF0.40262898802757263
aF0.0412348248064518
aF0.08889289200305939
aF0.13732066750526428
aF0.5539324283599854
aF0.17866657674312592
aF0.04298747330904007
aF0.040936119854450226
aF0.01919350028038025
aF0.041113801300525665
aF0.03614043444395065
aF0.038853347301483154
aF0.01465461403131485
aF0.5958049893379211
aF0.15098236501216888
aF0.0880768746137619
aF0.11840689182281494
aF0.010035434737801552
aF0.1754010021686554
aF0.04295497015118599
aF0.02602045238018036
aF0.08192527294158936
aF0.0852070227265358
aF0.0965288057923317
aF0.18733340501785278
aF0.0450909361243248
aF0.023110100999474525
aF0.11453507095575333
aF0.14100247621536255
aF0.12349003553390503
aF0.04224167764186859
aF0.05759740620851517
aF0.08458571135997772
aF0.09639212489128113
aF0.04447666183114052
aF0.041126299649477005
aF0.04927624762058258
aF0.04269332438707352
aF0.10284021496772766
aF0.04655329883098602
aF0.10761241614818573
aF0.15682709217071533
aF0.07064947485923767
aF0.16017338633537292
aF0.12488798052072525
aF0.016758959740400314
aF0.1737889051437378
aF0.09081689268350601
aF0.29875627160072327
aF0.17330697178840637
aF0.07783421874046326
aF0.02532074972987175
aF0.21710968017578125
aF0.16203397512435913
aF0.05135177820920944
aF0.06185044348239899
aF0.2215408980846405
aF0.25219032168388367
aF0.049222178757190704
aF0.10241451114416122
aF0.0630723163485527
aF0.09248042851686478
aF0.019245006144046783
aF0.04053372144699097
aF0.07509653270244598
aF0.13809770345687866
aF0.04722317308187485
aF0.03336098790168762
aF0.21917486190795898
aF0.24035249650478363
aF0.04495773836970329
aF0.11712902784347534
aF0.08693839609622955
aF0.017416980117559433
aF0.004147188737988472
aF0.09165742993354797
aF0.014405058696866035
aF0.02180609107017517
aF0.20524632930755615
aF0.18896979093551636
aF0.30799445509910583
aF0.055868927389383316
aF0.06255745887756348
aF0.05248025804758072
aF0.04831280559301376
aF0.13199947774410248
aF0.04124318063259125
aF0.10897115617990494
aF0.047312721610069275
aF0.152058407664299
aF0.06051567196846008
aF0.02136344276368618
aF0.16553902626037598
aF0.15069159865379333
aF0.10437102615833282
aF0.04695507511496544
aF0.2675895094871521
aF0.05062023550271988
aF0.013536982238292694
aF0.22318801283836365
aF0.04778609424829483
aF0.048701051622629166
aF0.07579118013381958
aF0.08401414006948471
aF0.13327303528785706
aF0.019173238426446915
aF0.3618478775024414
aF0.1472698450088501
aF0.04558220133185387
aF0.09010013937950134
aF0.022823404520750046
aF0.13539046049118042
aF0.0009122340125031769
aF0.06678611040115356
aF0.0822921097278595
aF0.09648922085762024
aF0.10796645283699036
aF0.1928306519985199
aF0.24355196952819824
aF0.1880253106355667
aF0.061418745666742325
aF0.0566643588244915
aF0.10661515593528748
aF0.3521519899368286
aF0.03133028745651245
aF0.1606321930885315
aF0.0931059718132019
aF0.051513977348804474
aF0.10901724547147751
aF0.12751927971839905
aF0.08700356632471085
aF0.03113604709506035
aF0.2451048493385315
aF0.1959422081708908
aF0.061710987240076065
aF0.07553436607122421
aF0.14847028255462646
aF0.07047616690397263
aF0.11675934493541718
aF0.3402724862098694
aF0.017538148909807205
aF0.17674748599529266
aF0.07701018452644348
aF0.11048229783773422
aF0.09654369950294495
aF0.05987996980547905
aF0.10208351165056229
aF0.0546141155064106
aF0.044033221900463104
aF0.035014182329177856
aF0.03145097196102142
aF0.1160559430718422
aF0.054597727954387665
aF0.13731814920902252
aF0.06851659715175629
aF0.07241781055927277
aF0.24525627493858337
aF0.04935193434357643
aF0.06002826616168022
aF0.15199488401412964
aF0.1378510594367981
aF0.07208055257797241
aF0.06007076054811478
aF0.18862110376358032
aF0.038762759417295456
aF0.4112943112850189
aF0.02501768432557583
aF0.12805038690567017
aF0.1259918361902237
aF0.18825027346611023
aF0.15847691893577576
aF0.10899827629327774
aF0.32708585262298584
aF0.044225506484508514
aF0.18893694877624512
aF0.08008896559476852
aF0.05534840375185013
aF0.053225889801979065
aF0.06545311957597733
aF0.04308027774095535
aF0.5259413719177246
aF0.27221471071243286
aF0.05974864214658737
aF0.13563895225524902
aF0.02224161848425865
aF0.05642377957701683
aF0.06588561087846756
aF0.11747359484434128
aF0.06863280385732651
aF0.07615881413221359
aF0.10218971967697144
aF0.0841786190867424
aF0.06261270493268967
aF0.3291916251182556
aF0.12975017726421356
aF0.03697500005364418
aF0.24390631914138794
aF0.20046256482601166
aF0.020671062171459198
aF0.3078617453575134
aF0.06730662286281586
aF0.13218267261981964
aF0.3582618236541748
aF0.15526077151298523
aF0.13036254048347473
aF0.08181801438331604
aF0.10259675979614258
aF0.08252428472042084
aF0.007495978381484747
aF0.07891538739204407
aF0.11670857667922974
aF0.09479432553052902
aF0.03307711333036423
aF0.08512613922357559
aF0.22404101490974426
aF0.03166070953011513
aF0.03437380865216255
aF0.37493813037872314
aF0.04344361647963524
aF0.2665330767631531
aF0.1248624324798584
aF0.07528766989707947
aF0.1792827844619751
aF0.07170870900154114
aF0.10707594454288483
aF0.41063523292541504
aF0.02816736325621605
aF0.12999671697616577
aF0.008331063203513622
aF0.32656633853912354
aF0.22868788242340088
aF0.020777948200702667
aF0.14751401543617249
aF0.09728985279798508
aF0.2899433374404907
aF0.46326959133148193
aF0.03783436492085457
aF0.4501802325248718
aF0.1667729914188385
aF0.1915346384048462
aF0.1403663605451584
aF0.13828164339065552
aF0.13243846595287323
aF0.067469522356987
aF0.08893434703350067
aF0.0561005137860775
aF0.2567288875579834
aF0.056966036558151245
aF0.14652204513549805
aF0.10657161474227905
aF0.43285495042800903
aF0.07178593426942825
aF0.327883780002594
aF0.020420603454113007
aF0.12961159646511078
aF0.11252472549676895
aF0.10897566378116608
aF0.028160490095615387
aF0.17454883456230164
aF0.03103933110833168
aF0.08631458878517151
aF0.41388773918151855
aF0.33741527795791626
aF0.09714112430810928
aF0.07131798565387726
aF0.1180880218744278
aF0.13919979333877563
aF0.02766619622707367
aF0.04548308998346329
aF0.034913890063762665
aF0.05513368546962738
aF0.1534695029258728
aF0.12321454286575317
aF0.0823068767786026
aF0.14158517122268677
aF0.07038195431232452
aF0.19935768842697144
aF0.14670585095882416
aF0.10035902261734009
aF0.10762316733598709
aF0.061240263283252716
aF0.005500169470906258
aF0.08904997259378433
aF0.19103537499904633
aF0.07135055959224701
aF0.05666816607117653
aF0.2884805500507355
aF0.2549077570438385
aF0.1273960918188095
aF0.0470113530755043
aF0.17022919654846191
aF0.01144001167267561
aF0.06428290158510208
aF0.10064555704593658
aF0.048969581723213196
aF0.04732443392276764
aF0.05599353462457657
aF0.03607851266860962
aF0.12157836556434631
aF0.025731705129146576
aF0.310333788394928
aF0.06934715807437897
aF0.06330208480358124
aF0.123099684715271
aF0.01828065887093544
aF0.12553520500659943
aF0.164773628115654
aF0.06350035965442657
aF0.07032296061515808
aF0.1845335215330124
aF0.33637988567352295
aF0.21147775650024414
aF0.4546615481376648
aF0.298623263835907
aF0.18564635515213013
aF0.07107658684253693
aF0.07962965965270996
aF0.12762659788131714
aF0.30212724208831787
aF0.08949568122625351
aF0.07152627408504486
aF0.11428576707839966
aF0.04033813998103142
aF0.0957835391163826
aF0.06257560104131699
aF0.16301105916500092
aF0.04771595820784569
aF0.23547983169555664
aF0.0015142359770834446
aF0.07111342996358871
aF0.16175827383995056
aF0.1322985291481018
aF0.046616196632385254
aF0.15982258319854736
aF0.033195026218891144
aF0.05018104612827301
aF0.034701913595199585
aF0.5283694267272949
aF0.13802416622638702
aF0.13038958609104156
aF0.06196856126189232
aF0.08934304118156433
aF0.0774984061717987
aF0.09109273552894592
aF0.06182442232966423
aF0.034435421228408813
aF0.10420849174261093
aF0.029850691556930542
aF0.09565199911594391
aF0.09794461727142334
aF0.11292067170143127
aF0.09586585313081741
aF0.29861336946487427
aF0.048866692930459976
aF0.012449544854462147
aF0.12118864059448242
aF0.11090101301670074
aF0.02444850280880928
aF0.07575415819883347
aF0.13008584082126617
aF0.10349316895008087
aF0.1521267145872116
aF0.023552704602479935
aF0.19251114130020142
aF0.07261206954717636
aF0.41170209646224976
aF0.12873698770999908
aF0.26696300506591797
aF0.09004658460617065
aF0.24393272399902344
aF0.10717351734638214
aF0.08919905126094818
aF0.035619646310806274
aF0.1105021983385086
aF0.09497684240341187
aF0.08864830434322357
aF0.011923925951123238
aF0.062324393540620804
aF0.03513827174901962
aF0.0443263053894043
aF0.40175673365592957
aF0.18064692616462708
aF0.029910722747445107
aF0.10203593969345093
aF0.04819729924201965
aF0.32306891679763794
aF0.21024580299854279
aF0.07640795409679413
aF0.18563081324100494
aF0.1753140389919281
aF0.03387070447206497
aF0.22742994129657745
aF0.1483239233493805
aF0.07650049030780792
aF0.054499901831150055
aF0.11584042012691498
aF0.07790766656398773
aF0.183089017868042
aF0.1026010513305664
aF0.10027218610048294
aF0.02547173574566841
aF0.27945905923843384
aF0.2972791790962219
aF0.0778120905160904
aF0.09197244793176651
aF0.04521644860506058
aF0.2353365421295166
aF0.24493266642093658
aF0.0446915403008461
aF0.07309170812368393
aF0.04583051800727844
aF0.1409495323896408
aF0.05910589545965195
aF0.0742301195859909
aF0.3910510540008545
aF0.3888472318649292
aF0.17127075791358948
aF0.1238415539264679
aF0.07032740861177444
aF0.06636606156826019
aF0.05854523554444313
aF0.09691300988197327
aF0.15362736582756042
aF0.07316689938306808
aF0.057375773787498474
aF0.13740608096122742
aF0.09224878251552582
aF0.04487527906894684
aF0.0430084727704525
aF0.08614205569028854
aF0.057326726615428925
aF0.014297444373369217
aF0.07540498673915863
aF0.2586630880832672
aF0.1525309681892395
aF0.09921757876873016
aF0.16654162108898163
aF0.07681591063737869
aF0.3437659740447998
aF0.10689481347799301
aF0.15245963633060455
aF0.11677885055541992
aF0.0862581804394722
aF0.0904131755232811
aF0.11624599248170853
aF0.014548657462000847
aF0.0937390848994255
aF0.06571093201637268
aF0.051618486642837524
aF0.02112983725965023
aF0.06734932959079742
aF0.02355431765317917
aF0.05867332965135574
aF0.12757141888141632
aF0.11073465645313263
aF0.1274997889995575
aF0.12972283363342285
aF0.10494542121887207
aF0.02981126680970192
aF0.08194789290428162
aF0.18185007572174072
aF0.08509352803230286
aF0.0895640105009079
aF0.08656637370586395
aF0.14901678264141083
aF0.3764897286891937
aF0.11206552386283875
aF0.11242823302745819
aF0.025594666600227356
aF0.36324524879455566
aF0.17304104566574097
aF0.024642158299684525
aF0.12201505154371262
aF0.061498042196035385
aF0.02018771506845951
aF0.04700469598174095
aF0.08883637934923172
aF0.07549871504306793
aF1.080094814300537
aF0.02972552552819252
aF0.20506638288497925
aF0.05445083603262901
aF0.050109364092350006
aF0.056363217532634735
aF0.23168277740478516
aF0.036157332360744476
aF0.11563768237829208
aF0.3787936568260193
aF0.1411249190568924
aF0.20966650545597076
aF0.24290046095848083
aF0.03725369647145271
aF0.06307629495859146
aF0.23463350534439087
aF0.07839848101139069
aF0.15114006400108337
aF0.14069777727127075
aF0.06635232269763947
aF0.07749751210212708
aF0.24908538162708282
aF0.17808766663074493
aF0.040381353348493576
aF0.24539856612682343
aF0.33869707584381104
aF0.045515917241573334
aF0.026892164722085
aF0.1006668359041214
aF0.07774709165096283
aF0.08630351722240448
aF0.031217526644468307
aF0.10551196336746216
aF0.07946257293224335
aF0.0620843730866909
aF0.06693314760923386
aF0.04449615254998207
aF0.05278288573026657
aF0.21464844048023224
aF0.021681994199752808
aF0.02681274153292179
aF0.06905277073383331
aF0.1992236077785492
aF0.2962193489074707
aF0.021318035200238228
aF0.03466612845659256
aF0.06149299815297127
aF0.2031257152557373
aF0.09479725360870361
aF0.02308960258960724
aF0.7242651581764221
aF0.19421449303627014
aF0.11706802994012833
aF0.11877155303955078
aF0.21290670335292816
aF0.03808540850877762
aF0.057321395725011826
aF0.13062070310115814
aF0.038365285843610764
aF0.04521932452917099
aF0.06799591332674026
aF0.0735219195485115
aF0.03953989967703819
aF0.07153087854385376
aF0.0423174686729908
aF0.025195466354489326
aF1.1139250993728638
aF0.13736572861671448
aF0.07223744690418243
aF0.12473448365926743
aF0.09157606214284897
aF0.07091023772954941
aF0.2181803286075592
aF0.16743043065071106
aF0.06863867491483688
aF0.07786587625741959
aF0.11082113534212112
aF0.04643452167510986
aF0.10824163258075714
aF0.08995848894119263
aF0.20073920488357544
aF0.1262391358613968
aF0.19405990839004517
aF0.04105397313833237
aF0.06035971641540527
aF0.0780659019947052
aF0.1592671126127243
aF0.08515118062496185
aF0.19668471813201904
aF0.052903447300195694
aF0.010475058108568192
aF0.0229622982442379
aF0.12451007962226868
aF0.047929950058460236
aF0.06840763986110687
aF0.026367004960775375
aF0.1334519386291504
aF0.08454716205596924
aF0.0422329381108284
aF0.055501773953437805
aF0.026394275948405266
aF0.14466021955013275
aF0.20292940735816956
aF0.027743665501475334
aF0.06837474554777145
aF0.01766342669725418
aF0.12265326082706451
aF0.08336874842643738
aF0.4954105615615845
aF0.09281810373067856
aF0.07162810862064362
aF0.05092582851648331
aF0.030870996415615082
aF0.0777827575802803
aF0.03496049717068672
aF0.18224874138832092
aF0.11353199183940887
aF0.07040055096149445
aF0.0791090652346611
aF0.08718126267194748
aF0.06989920139312744
aF0.6432305574417114
aF0.1340310275554657
aF0.08234432339668274
aF0.10422830283641815
aF0.014802396297454834
aF0.010925324633717537
aF0.34485986828804016
aF1.1157619953155518
aF0.16008184850215912
aF0.047709524631500244
aF0.09168494492769241
aF0.06825754046440125
aF0.09716454893350601
aF0.2746964395046234
aF0.04548511654138565
aF0.35940855741500854
aF0.05292503535747528
aF0.04086315631866455
aF0.039256852120161057
aF0.5370819568634033
aF0.2669295370578766
aF0.06212731450796127
aF0.09376583993434906
aF0.1662747710943222
aF0.034660711884498596
aF0.04489419609308243
aF0.09178806096315384
aF0.11697666347026825
aF0.11700259149074554
aF0.03348033130168915
aF0.029216865077614784
aF0.19040143489837646
aF0.056753404438495636
aF0.025140872225165367
aF0.06740251928567886
aF0.11541324108839035
aF0.07154642790555954
aF0.10195475816726685
aF0.013509123586118221
aF0.03378511220216751
aF0.0695645809173584
aF0.030962500721216202
aF0.1992046982049942
aF0.06078045070171356
aF0.07019195705652237
aF0.07489676773548126
aF0.09297619760036469
aF0.010915406979620457
aF0.01627032458782196
aF0.07024644315242767
aF0.09220137447118759
aF0.3679473400115967
aF0.05392353981733322
aF0.22227399051189423
aF0.04274026304483414
aF0.11175215244293213
aF0.30737248063087463
aF0.08921869099140167
aF0.3686881363391876
aF0.06128985434770584
aF0.07537148892879486
aF0.06343331187963486
aF0.15181514620780945
aF0.09332038462162018
aF0.03593125566840172
aF0.18072503805160522
aF0.23833870887756348
aF0.16614551842212677
aF0.1407458335161209
aF0.17342495918273926
aF0.07437385618686676
aF0.13864348828792572
aF0.04616419970989227
aF0.15585598349571228
aF0.09002229571342468
aF0.08011367172002792
aF0.10505010187625885
aF0.18167352676391602
aF0.022127587348222733
aF0.08506099134683609
aF0.2225756049156189
aF0.25338590145111084
aF0.09431897848844528
aF0.06150973588228226
aF0.07678841799497604
aF0.10054551064968109
aF0.03647371381521225
aF0.173178568482399
aF0.06500060856342316
aF0.7741413116455078
aF0.01422881055623293
aF0.07174266129732132
aF0.024096697568893433
aF0.05276252329349518
aF0.11117715388536453
aF0.0430237241089344
aF0.09365572035312653
aF0.06334199011325836
aF0.11270648241043091
aF0.14157357811927795
aF0.060777854174375534
aF0.021909240633249283
aF0.4212599992752075
aF0.06682495772838593
aF0.055444326251745224
aF0.09904350340366364
aF0.14651831984519958
aF0.052383340895175934
aF0.06411782652139664
aF0.24958516657352448
aF0.22064337134361267
aF0.11288058012723923
aF0.2483753263950348
aF0.02016303315758705
aF0.06541913002729416
aF0.09941363334655762
aF0.0938807874917984
aF0.030421365052461624
aF0.15840785205364227
aF0.15001541376113892
aF0.14734217524528503
aF0.0724973976612091
aF0.03974979743361473
aF0.06881847977638245
aF0.03577978163957596
aF0.11779525130987167
aF0.01821727491915226
aF0.11674564331769943
aF0.07511665672063828
aF0.05924895405769348
aF0.10683532059192657
aF0.08864376693964005
aF0.10957063734531403
aF0.08825571835041046
aF0.17250344157218933
aF0.18412214517593384
aF0.25798290967941284
aF0.11082660406827927
aF0.018430087715387344
aF0.16726309061050415
aF0.06708811968564987
aF0.09796954691410065
aF0.06373067200183868
aF0.11701295524835587
aF0.054222505539655685
aF0.07828950136899948
aF0.1458321064710617
aF0.11738915741443634
aF0.4329271614551544
aF0.24274206161499023
aF0.07016953825950623
aF0.14357593655586243
aF0.0024120695888996124
aF0.10918525606393814
aF0.5341741442680359
aF0.06920377165079117
aF0.09913767874240875
aF0.1713859736919403
aF0.011269723065197468
aF0.0660359114408493
aF0.09502113610506058
aF0.18711420893669128
aF0.025864463299512863
aF1.090684175491333
aF0.04050973802804947
aF0.3898144066333771
aF0.0388425812125206
aF0.061251506209373474
aF0.023573366925120354
aF0.01202620193362236
aF0.06996092200279236
aF0.22400516271591187
aF0.07907280325889587
aF0.08178138732910156
aF0.02848818525671959
aF0.0320250429213047
aF0.034591689705848694
aF0.04907612130045891
aF0.2156742364168167
aF0.16433323919773102
aF0.09811297804117203
aF0.17987510561943054
aF0.11614801734685898
aF0.06727320700883865
aF0.04716276377439499
aF0.6421608924865723
aF0.015588860958814621
aF0.09360288083553314
aF0.15356676280498505
aF0.37118834257125854
aF0.09453517198562622
aF0.06781913340091705
aF0.03779366612434387
aF0.14414027333259583
aF0.527888834476471
aF0.09560419619083405
aF0.01668027974665165
aF0.1676892787218094
aF0.10557235777378082
aF0.40464261174201965
aF0.03650619462132454
aF0.07073412835597992
aF0.0636860728263855
aF0.03753285109996796
aF0.14080125093460083
aF0.04491996020078659
aF0.048792000859975815
aF0.1932833194732666
aF0.06915232539176941
aF0.04757240042090416
aF0.19081968069076538
aF0.11750078201293945
aF0.13069766759872437
aF0.2526390552520752
aF0.03265292942523956
aF0.02906416542828083
aF0.4447670578956604
aF0.07189366221427917
aF0.0913630947470665
aF0.01619933731853962
aF0.11493626981973648
aF0.17650742828845978
aF0.2494821846485138
aF0.49604102969169617
aF0.09922114759683609
aF0.0500604547560215
aF0.05904373899102211
aF0.06740210205316544
aF0.03226678445935249
aF0.18751783668994904
aF0.048330552875995636
aF0.5427093505859375
aF0.2059841752052307
aF0.6735129356384277
aF0.045504212379455566
aF0.04108269512653351
aF0.07545521855354309
aF0.4255117177963257
aF0.04601873829960823
aF0.2403707057237625
aF0.03604649379849434
aF0.05966171622276306
aF0.09771233797073364
aF0.03319559246301651
aF0.01014863234013319
aF0.11262398958206177
aF0.022682365030050278
aF0.2920779883861542
aF0.058617617934942245
aF0.07613283395767212
aF0.15019312500953674
aF0.12998096644878387
aF0.015222987160086632
aF0.0944378525018692
aF0.0655234307050705
aF0.049565959721803665
aF0.04641682654619217
aF0.10101430118083954
aF0.04971068352460861
aF0.05144563689827919
aF0.01915215700864792
aF0.02250663749873638
aF0.018767517060041428
aF0.046033523976802826
aF0.21159222722053528
aF0.03763348236680031
aF0.21609607338905334
aF0.022940414026379585
aF0.39764803647994995
aF0.07401369512081146
aF0.03441733494400978
aF0.11653893440961838
aF0.09285159409046173
aF0.20566871762275696
aF0.08369859308004379
aF0.07470010966062546
aF0.07101457566022873
aF0.0271427221596241
aF0.8497345447540283
aF0.07780840992927551
aF0.039372801780700684
aF0.2178094983100891
aF0.05320766940712929
aF0.08868008852005005
aF0.04674850404262543
aF0.11189538240432739
aF0.05179322510957718
aF0.020155858248472214
aF0.08939272910356522
aF0.17156285047531128
aF0.1579289734363556
aF0.042004626244306564
aF0.08209314942359924
aF0.020068518817424774
aF0.08209222555160522
aF0.10896918177604675
aF0.13816088438034058
aF0.07250381261110306
aF0.037018612027168274
aF0.0945003479719162
aF0.030225420370697975
aF0.11775929480791092
aF0.04705161973834038
aF0.020474642515182495
aF0.09010937809944153
aF0.09140056371688843
aF0.06928042322397232
aF0.04985206574201584
aF0.14901454746723175
aF0.019447317346930504
aF0.014209385961294174
aF0.3789103031158447
aF0.07112623751163483
aF0.04277223348617554
aF0.0026978401001542807
aF0.013531789183616638
aF0.22875963151454926
aF0.03283919394016266
aF0.09547881036996841
aF0.07132448256015778
aF0.12457063049077988
aF0.26609525084495544
aF0.046907469630241394
aF0.018420100212097168
aF0.20554283261299133
aF0.018829388543963432
aF0.051173627376556396
aF0.07989146560430527
aF0.09912751615047455
aF0.07192040979862213
aF0.0697796493768692
aF0.06328470259904861
aF0.11011070013046265
aF0.06923035532236099
aF0.01961343362927437
aF0.026778683066368103
aF0.0995122492313385
aF0.054197777062654495
aF0.1921713799238205
aF0.06128120794892311
aF0.10935191065073013
aF0.14291605353355408
aF0.05021648108959198
aF0.10945656895637512
aF0.01790270209312439
aF0.03602741286158562
aF0.14276665449142456
aF0.12721353769302368
aF0.5074731707572937
aF0.45133692026138306
aF0.03952375799417496
aF0.01151934452354908
aF0.08712891489267349
aF0.5258506536483765
aF0.05230552330613136
aF0.04748627915978432
aF0.03501193970441818
aF0.03603166341781616
aF0.050558291375637054
aF0.12510798871517181
aF0.028623688966035843
aF0.17644533514976501
aF0.2160051465034485
aF0.08167659491300583
aF0.25025010108947754
aF0.07306025177240372
aF0.11971817910671234
aF0.07219801098108292
aF0.061804402619600296
aF0.04062880203127861
aF0.0975620448589325
aF0.07705741375684738
aF0.09501388669013977
aF0.04927804321050644
aF0.19046397507190704
aF0.13899222016334534
aF0.04230712726712227
aF0.10669410228729248
aF0.04059230163693428
aF0.017901787534356117
aF0.12674307823181152
aF0.06235133111476898
aF0.043514326214790344
aF0.04960907995700836
aF0.10405677556991577
aF0.07566538453102112
aF0.02299679070711136
aF0.09017939865589142
aF0.08952106535434723
aF0.16931453347206116
aF0.03606337308883667
aF0.10094350576400757
aF0.059877678751945496
aF0.13806773722171783
aF0.03965071588754654
aF0.0550057590007782
aF0.06112498417496681
aF0.09252886474132538
aF0.054090723395347595
aF0.08859634399414062
aF0.031490374356508255
aF0.10652385652065277
aF0.018236398696899414
aF0.12189674377441406
aF0.08675713837146759
aF0.1020336002111435
aF0.12385722994804382
aF0.25836181640625
aF0.25434210896492004
aF0.14273633062839508
aF0.09362880885601044
aF0.0727154091000557
aF0.09552041441202164
aF0.13715660572052002
aF0.05303322523832321
aF0.48278379440307617
aF0.08682672679424286
aF0.06390603631734848
aF0.031822893768548965
aF0.01612319052219391
aF0.12825292348861694
aF0.04792310297489166
aF0.42149150371551514
aF0.2754926085472107
aF0.07629568874835968
aF0.36597225069999695
aF0.040651120245456696
aF0.03278650715947151
aF0.16910582780838013
aF0.036714185029268265
aF0.02362777665257454
aF0.08564825356006622
aF0.22806546092033386
aF0.07873000204563141
aF0.1114221066236496
aF0.08160997182130814
aF0.10358870029449463
aF0.4056844413280487
aF0.2453104853630066
aF0.18525078892707825
aF0.13905948400497437
aF0.09224845468997955
aF0.027723051607608795
aF0.02704743482172489
aF0.06314824521541595
aF0.10547521710395813
aF0.1642833650112152
aF0.024392172694206238
aF0.06423603743314743
aF0.13406218588352203
aF0.006255358457565308
aF0.013265097513794899
aF0.0503777340054512
aF0.06010943651199341
aF0.07804214954376221
aF0.06598436832427979
aF0.017356326803565025
aF0.11610272526741028
aF0.11614426970481873
aF0.10141193121671677
aF0.40459004044532776
aF0.02846474014222622
aF0.11636462807655334
aF0.05129159241914749
aF0.042591437697410583
aF0.1179460883140564
aF0.27587687969207764
aF0.044154394418001175
aF0.13023948669433594
aF0.03468931466341019
aF0.06757529079914093
aF0.15296445786952972
aF0.09134310483932495
aF0.06809569150209427
aF0.02646970935165882
aF0.05204020068049431
aF0.10920000076293945
aF0.3023329973220825
aF0.03371405974030495
aF0.04082314670085907
aF0.02834908850491047
aF0.20986279845237732
aF0.09803077578544617
aF0.06634830683469772
aF0.14802169799804688
aF0.06464822590351105
aF0.04069589078426361
aF0.05328652262687683
aF0.051931656897068024
aF0.18843713402748108
aF0.05437587574124336
aF0.07642380893230438
aF0.04018952324986458
aF0.13521796464920044
aF0.005800436716526747
aF0.04911962151527405
aF0.04055082052946091
aF0.12763667106628418
aF0.021424317732453346
aF0.1479676365852356
aF0.020778940990567207
aF0.1852484494447708
aF0.03057074546813965
aF0.15706878900527954
aF0.10209286212921143
aF0.19095170497894287
aF0.009100427851080894
aF0.03187991678714752
aF0.12835709750652313
aF0.19952520728111267
aF0.1233869418501854
aF0.023644570261240005
aF0.03346368297934532
aF0.07904953509569168
aF0.04864881932735443
aF0.12720094621181488
aF0.05437470227479935
aF0.044654034078121185
aF0.09038574993610382
aF0.09141553193330765
aF0.10993044823408127
aF0.21025890111923218
aF0.2752377986907959
aF0.1665000021457672
aF0.1440334916114807
aF0.028821207582950592
aF0.03211866319179535
aF0.055985234677791595
aF0.14952734112739563
aF0.4107815623283386
aF0.06500281393527985
aF0.0888095572590828
aF0.004585945047438145
aF0.24645167589187622
aF0.3483782708644867
aF0.06823553144931793
aF0.06877874583005905
aF0.13654154539108276
aF0.01955675333738327
aF0.09327463805675507
aF0.05266006290912628
aF0.24431422352790833
aF0.0559028722345829
aF0.04696260392665863
aF0.04174697399139404
aF0.05345601961016655
aF0.14682744443416595
aF0.0689447745680809
aF0.16469506919384003
aF0.06548172980546951
aF0.12297751009464264
aF0.33376866579055786
aF0.26982370018959045
aF0.11024820804595947
aF0.18051017820835114
aF0.05936725065112114
aF0.2317090630531311
aF0.046743545681238174
aF0.043886542320251465
aF0.011901136487722397
aF0.10932537913322449
aF0.3329930901527405
aF0.1567106992006302
aF0.11132235080003738
aF0.35882991552352905
aF0.037908345460891724
aF0.12531457841396332
aF0.15285654366016388
aF0.05947146564722061
aF0.062492482364177704
aF0.06490783393383026
aF0.1622302383184433
aF0.2024361491203308
aF0.028612369671463966
aF0.09829294681549072
aF0.04426196217536926
aF0.11113297194242477
aF0.09430664032697678
aF0.07806859910488129
aF0.13310366868972778
aF0.0035452579613775015
aF0.09456325322389603
aF0.09650949388742447
aF0.14282116293907166
aF0.30072933435440063
aF0.03244047611951828
aF0.22081607580184937
aF0.05746637284755707
aF0.05696103721857071
aF0.10471804440021515
aF0.03228361904621124
aF0.04852021113038063
aF0.042020246386528015
aF0.06187953054904938
aF0.22994078695774078
aF0.15062487125396729
aF0.04164288938045502
aF0.361874520778656
aF0.025343064218759537
aF0.034640949219465256
aF0.05617117881774902
aF0.13887962698936462
aF0.07837022095918655
aF0.023290399461984634
aF0.09568779915571213
aF0.19102133810520172
aF0.1244598776102066
aF0.030533399432897568
aF0.04746881499886513
aF0.04982419312000275
aF0.283439040184021
aF0.016458705067634583
aF0.02086845226585865
aF0.30483555793762207
aF0.09157615900039673
aF0.19118154048919678
aF0.02476520836353302
aF0.07521021366119385
aF0.07765530049800873
aF0.08343525230884552
aF0.07161640375852585
aF0.09027048945426941
aF0.13467009365558624
aF0.08196520805358887
aF0.2135884314775467
aF0.0932173877954483
aF0.0998811200261116
aF0.07819327712059021
aF0.05548413470387459
aF0.10051344335079193
aF0.10561377555131912
aF0.24505214393138885
aF0.06033870205283165
aF0.2288491129875183
aF0.1032024621963501
aF0.04518479108810425
aF0.1869673728942871
aF0.13085627555847168
aF0.1554519683122635
aF0.04575391113758087
aF0.4749980568885803
aF0.019409876316785812
aF0.13436861336231232
aF0.21271952986717224
aF0.0362255722284317
aF0.08939601480960846
aF0.24172838032245636
aF0.14254537224769592
aF0.05312846601009369
aF0.2597924470901489
aF0.10017289221286774
aF0.13601550459861755
aF0.15187424421310425
aF0.10636233538389206
aF0.494125634431839
aF0.13619238138198853
aF0.05837642401456833
aF0.18622153997421265
aF0.0479787141084671
aF0.04415563866496086
aF0.07598400115966797
aF0.7294983267784119
aF0.11356651782989502
aF0.08754877746105194
aF0.31208574771881104
aF0.11071199178695679
aF0.190879687666893
aF0.05825817584991455
aF0.035427965223789215
aF0.025356411933898926
aF0.02952760085463524
aF0.11926677823066711
aF0.07623545080423355
aF0.01193985901772976
aF0.1084045022726059
aF0.05585362762212753
aF0.08992160856723785
aF0.07956309616565704
aF0.09752324223518372
aF0.10877524316310883
aF0.4856274724006653
aF0.08310496807098389
aF0.3714515268802643
aF0.29709291458129883
aF0.02686465159058571
aF0.5423328876495361
aF0.03954395279288292
aF0.0374043807387352
aF0.12514877319335938
aF0.06708978861570358
aF0.07908043265342712
aF0.12196195870637894
aF0.07598530501127243
aF0.0718429684638977
aF0.08544149994850159
aF0.058495376259088516
aF0.13921929895877838
aF0.2833722233772278
aF0.04407412186264992
aF0.061401769518852234
aF0.06297957897186279
aF0.05035760626196861
aF0.05647226795554161
aF0.3280690610408783
aF0.17372861504554749
aF0.050808824598789215
aF0.09265853464603424
aF0.0899820327758789
aF0.5467448234558105
aF0.08326655626296997
aF0.07302724570035934
aF0.0712851732969284
aF0.06969655305147171
aF0.016371147707104683
aF0.07389038801193237
aF0.03449682891368866
aF0.008660541847348213
aF0.009049811400473118
aF0.10234008729457855
aF0.10552680492401123
aF0.049104221165180206
aF0.04199481010437012
aF0.2448854148387909
aF0.16154241561889648
aF0.10304944962263107
aF0.041280440986156464
aF0.03349905461072922
aF0.20634035766124725
aF0.055297933518886566
aF0.1407126933336258
aF0.19999651610851288
aF0.06158072501420975
aF0.05539436638355255
aF0.1948264241218567
aF0.156320258975029
aF0.4100324213504791
aF0.0547250397503376
aF0.31715917587280273
aF0.05556396767497063
aF0.14114156365394592
aF0.0583963580429554
aF0.047648098319768906
aF0.07140740752220154
aF0.06279975920915604
aF0.15906357765197754
aF0.04054289311170578
aF0.19163566827774048
aF0.2134959101676941
aF0.23998795449733734
aF0.07590387016534805
aF0.15661977231502533
aF0.025164872407913208
aF0.09527453780174255
aF0.07303614169359207
aF0.07453681528568268
aF0.029761459678411484
aF0.06511182337999344
aF0.29097408056259155
aF0.032739222049713135
aF0.21647603809833527
aF0.020011506974697113
aF0.26641231775283813
aF0.2383153736591339
aF0.14990992844104767
aF0.09060972929000854
aF0.02180768921971321
aF0.09352844953536987
aF0.03644062951207161
aF0.4477774500846863
aF0.04810682311654091
aF0.0794178694486618
aF0.12797242403030396
aF0.09075333178043365
aF0.17879649996757507
aF0.1464206576347351
aF0.030495423823595047
aF0.059299394488334656
aF0.0341879278421402
aF0.16989931464195251
aF0.03571860492229462
aF0.1941707283258438
aF0.12249285727739334
aF0.4158629775047302
aF0.08465065062046051
aF0.1146596297621727
aF0.196000337600708
aF0.20123089849948883
aF0.21487076580524445
aF0.05944592505693436
aF0.046920113265514374
aF0.03841424733400345
aF0.008986711502075195
aF0.027711331844329834
aF0.07424940168857574
aF0.03906390070915222
aF0.02953461930155754
aF0.14165589213371277
aF0.07302126288414001
aF0.061547983437776566
aF0.35502564907073975
aF0.05542241036891937
aF0.05823713541030884
aF0.1621938943862915
aF0.22762398421764374
aF0.061757855117321014
aF0.04066324234008789
aF0.4796845614910126
aF0.07427559047937393
aF0.10499627888202667
aF0.07216010987758636
aF0.028324943035840988
aF0.2375287413597107
aF0.11904504895210266
aF0.19032645225524902
aF0.03832554817199707
aF0.43204712867736816
aF0.18257060647010803
aF0.04981966316699982
aF0.06135895103216171
aF0.08880442380905151
aF0.08079025894403458
aF0.06291559338569641
aF0.09311705827713013
aF0.22940218448638916
aF0.4599655866622925
aF0.1640663743019104
aF0.036665529012680054
aF0.2727713882923126
aF0.17829740047454834
aF0.06423135101795197
aF0.0598207451403141
aF0.0589415542781353
aF0.023149259388446808
aF0.05425442382693291
aF0.20719468593597412
aF0.044003285467624664
aF0.233456090092659
aF0.03712359070777893
aF0.0697060227394104
aF0.08140189945697784
aF0.022236019372940063
aF0.08310049772262573
aF0.13663190603256226
aF0.06178682669997215
aF0.06431952118873596
aF0.41751596331596375
aF0.10502849519252777
aF0.09096451103687286
aF0.08375577628612518
aF0.06754738092422485
aF0.054551444947719574
aF0.025547023862600327
aF0.1889655590057373
aF0.14033105969429016
aF0.08400928974151611
aF0.12085939943790436
aF0.050602737814188004
aF0.0223835539072752
aF0.08236698806285858
aF0.07134586572647095
aF0.15643370151519775
aF0.034800536930561066
aF0.06803181022405624
aF0.09585489332675934
aF0.10677219182252884
aF0.4379349946975708
aF0.038878072053194046
aF0.10617856681346893
aF0.045234858989715576
aF0.04690692201256752
aF0.10862889140844345
aF0.21627451479434967
aF0.17381468415260315
aF0.1257411390542984
aF0.21370640397071838
aF0.11155378073453903
aF0.12775027751922607
aF0.08898420631885529
aF0.15992525219917297
aF0.04537057876586914
aF0.021692106500267982
aF0.3117921054363251
aF0.19336029887199402
aF0.05526774004101753
aF0.15430884063243866
aF0.08809711784124374
aF0.10673904418945312
aF0.17878255248069763
aF0.17738014459609985
aF0.03449413552880287
aF0.0765036940574646
aF0.11521000415086746
aF0.030843086540699005
aF0.0690419152379036
aF0.041221313178539276
aF0.04057738929986954
aF0.0994432345032692
aF0.027548395097255707
aF0.056345101445913315
aF0.075289785861969
aF0.08280833810567856
aF0.07836823165416718
aF0.3754827678203583
aF0.01048040110617876
aF0.1865699142217636
aF0.9626412987709045
aF0.09584731608629227
aF0.0910550057888031
aF0.14643564820289612
aF0.12272309511899948
aF0.07990546524524689
aF0.04610927402973175
aF0.07805697619915009
aF0.030059263110160828
aF0.01710144244134426
aF0.16402465105056763
aF0.06333969533443451
aF0.10031936317682266
aF0.07397982478141785
aF0.06295327842235565
aF0.12072966992855072
aF0.049994565546512604
aF0.033284611999988556
aF0.044737525284290314
aF0.02563079074025154
aF0.03848950192332268
aF0.07999379932880402
aF0.4804089069366455
aF0.07422906160354614
aF0.08918367326259613
aF0.28354358673095703
aF0.10717785358428955
aF0.02529902756214142
aF0.025994665920734406
aF0.04704674333333969
aF0.0541861429810524
aF0.04688285291194916
aF0.5273079872131348
aF0.071536585688591
aF0.047762658447027206
aF0.10093452036380768
aF0.051609382033348083
aF0.16829447448253632
aF0.015513202175498009
aF0.14146588742733002
aF0.05841013044118881
aF0.0308317132294178
aF0.2008083164691925
aF0.05837058648467064
aF0.27461791038513184
aF0.10154680907726288
aF0.11841404438018799
aF0.10312600433826447
aF0.051279596984386444
aF0.0877080112695694
aF0.036475177854299545
aF0.02900763973593712
aF0.05989807844161987
aF0.017915265634655952
aF0.025525523349642754
aF0.4326291084289551
aF0.08781415224075317
aF0.261577308177948
aF0.09904749691486359
aF0.07112092524766922
aF0.23157688975334167
aF0.0464937724173069
aF0.12716816365718842
aF0.015721995383501053
aF0.0670897588133812
aF0.04811592772603035
aF0.11640231311321259
aF0.029379911720752716
aF0.10962177067995071
aF0.08106058090925217
aF0.0579458549618721
aF0.3934813141822815
aF0.08268459141254425
aF0.05779282748699188
aF0.14842036366462708
aF0.3269771337509155
aF0.14575232565402985
aF0.033381909132003784
aF0.088576540350914
aF0.06518105417490005
aF0.047913528978824615
aF0.06149120628833771
aF0.32732829451560974
aF0.3643384277820587
aF0.01702740043401718
aF0.0601997971534729
aF0.0584147684276104
aF0.052497297525405884
aF0.01824057102203369
aF0.113686203956604
aF0.26973915100097656
aF0.062199242413043976
aF0.11670894920825958
aF0.0339033305644989
aF0.08758958429098129
aF0.11596018821001053
aF0.2542126774787903
aF0.07561571896076202
aF0.06617914885282516
aF0.0910884216427803
aF0.34765174984931946
aF0.1475299894809723
aF0.004164058715105057
aF0.05780996009707451
aF0.06648753583431244
aF0.09070907533168793
aF0.0182301327586174
aF0.12137188762426376
aF0.10074897110462189
aF0.15541177988052368
aF0.10236148536205292
aF0.053680434823036194
aF0.029429346323013306
aF0.014190557412803173
aF0.035736605525016785
aF0.17727626860141754
aF0.08206888288259506
aF0.18590664863586426
aF0.08293378353118896
aF0.031461916863918304
aF0.04349244385957718
aF0.17976397275924683
aF0.07746841013431549
aF0.13677304983139038
aF0.08748658001422882
aF0.08202596008777618
aF0.06664112210273743
aF0.26410332322120667
aF0.20653733611106873
aF0.00983432400971651
aF0.0483274906873703
aF0.04645982012152672
aF0.518887996673584
aF0.21408063173294067
aF0.3240866959095001
aF0.09359800815582275
aF0.05265017971396446
aF0.2025972604751587
aF0.07644140720367432
aF0.05669759213924408
aF0.15478485822677612
aF0.08044613897800446
aF0.06982951611280441
aF0.16208061575889587
aF0.08259417116641998
aF0.09583534300327301
aF0.10102258622646332
aF0.41181686520576477
aF0.03860855847597122
aF0.20956683158874512
aF0.06234632432460785
aF0.4359554648399353
aF0.05950843170285225
aF0.27558618783950806
aF0.05557803809642792
aF0.03823275864124298
aF0.4242846667766571
aF0.09787280112504959
aF0.5207552909851074
aF0.07611999660730362
aF0.1482638716697693
aF0.09171359241008759
aF0.07662629336118698
aF0.01546163484454155
aF0.10716816782951355
aF0.488454669713974
aF0.4586036503314972
aF0.12033062428236008
aF0.070667564868927
aF0.12934283912181854
aF0.02024015784263611
aF0.09360698610544205
aF0.0208490788936615
aF0.025486644357442856
aF0.08856125175952911
aF0.40727919340133667
aF0.252731055021286
aF0.06415914744138718
aF0.1128915399312973
aF0.1958455741405487
aF0.12887747585773468
aF0.19457416236400604
aF0.2843948304653168
aF0.21849042177200317
aF0.08680543303489685
aF0.4425826072692871
aF0.04503566399216652
aF0.03446601703763008
aF0.34052911400794983
aF0.11225931346416473
aF0.025757893919944763
aF0.08703025430440903
aF0.08316811919212341
aF0.0850873738527298
aF0.11318011581897736
aF0.030862361192703247
aF0.1312224417924881
aF0.0590423047542572
aF0.5112854242324829
aF0.18542426824569702
aF0.09799110144376755
aF0.14087039232254028
aF0.16364285349845886
aF0.03624555096030235
aF0.04581926390528679
aF0.02844531461596489
aF0.03523290157318115
aF0.05965973436832428
aF0.0701402872800827
aF0.07965277135372162
aF0.03383293002843857
aF0.12251264601945877
aF0.06966804713010788
aF0.10407163202762604
aF0.05342225730419159
aF0.09235705435276031
aF0.03812938556075096
aF0.13102281093597412
aF0.057942625135183334
aF0.06256978958845139
aF0.07036972045898438
aF0.02856040745973587
aF0.07341864705085754
aF0.16649581491947174
aF0.07439002394676208
aF0.12567800283432007
aF0.39578258991241455
aF0.06854277849197388
aF0.014248225837945938
aF0.08302465081214905
aF0.006349608302116394
aF0.1651952564716339
aF0.047412414103746414
aF0.030425282195210457
aF0.34445783495903015
aF0.1296984851360321
aF0.08577825129032135
aF0.08899945020675659
aF0.14034564793109894
aF0.02574595808982849
aF0.14386354386806488
aF0.16093654930591583
aF0.07227933406829834
aF0.06533332169055939
aF0.056611839681863785
aF0.0972522422671318
aF0.04128597676753998
aF0.19010552763938904
aF0.07155142724514008
aF0.06902774423360825
aF0.028185052797198296
aF0.15173737704753876
aF0.1009812206029892
aF0.08589844405651093
aF0.02634502947330475
aF0.04832129180431366
aF0.1897161453962326
aF0.14566627144813538
aF0.024496713653206825
aF0.054442983120679855
aF0.10242463648319244
aF0.015042806975543499
aF0.027561556547880173
aF0.06481804698705673
aF0.22583873569965363
aF0.04438915476202965
aF0.05443036928772926
aF0.04005153849720955
aF0.09336598217487335
aF0.06419327110052109
aF0.03843972459435463
aF0.06136906147003174
aF0.23728758096694946
aF0.560606837272644
aF0.06804962456226349
aF0.04169229790568352
aF0.21877285838127136
aF0.06613423675298691
aF0.11992992460727692
aF0.04650476574897766
aF0.019320236518979073
aF0.04891663044691086
aF0.07311932742595673
aF0.2785235643386841
aF0.0628945529460907
aF0.0603148378431797
aF0.023086315020918846
aF0.12064921855926514
aF0.05317876115441322
aF0.06681875884532928
aF0.18751126527786255
aF0.016403570771217346
aF0.09126203507184982
aF0.03870371729135513
aF0.11286130547523499
aF0.08368634432554245
aF0.21671897172927856
aF0.03301028907299042
aF0.04677969962358475
aF0.2088993489742279
aF0.12236940115690231
aF0.1492113471031189
aF0.07614569365978241
aF0.06869906932115555
aF0.03762572631239891
aF0.06475666910409927
aF0.22497119009494781
aF0.1202135980129242
aF0.10448093712329865
aF0.14154018461704254
aF0.1705060601234436
aF0.1041819229722023
aF0.12276990711688995
aF0.08807839453220367
aF0.1653621792793274
aF0.07950007915496826
aF0.07523874193429947
aF0.08530556410551071
aF0.0575404018163681
aF0.10809994488954544
aF0.2290288507938385
aF0.052637867629528046
aF0.3691396117210388
aF0.05292212963104248
aF0.24124827980995178
aF0.05324482172727585
aF0.04674287140369415
aF0.05762156844139099
aF0.05901339650154114
aF0.09087198972702026
aF0.10555779933929443
aF0.0529324971139431
aF0.0874081701040268
aF0.4553503096103668
aF0.0722150206565857
aF0.010728816501796246
aF0.14431852102279663
aF0.015319494530558586
aF0.05309624969959259
aF0.14892882108688354
aF0.10190689563751221
aF0.039291076362133026
aF0.08433814346790314
aF0.13369041681289673
aF0.067330002784729
aF0.0684204250574112
aF0.036120254546403885
aF0.05846177786588669
aF0.016069844365119934
aF0.057201169431209564
aF0.003825052408501506
aF0.1417255401611328
aF0.015418198890984058
aF0.2665150761604309
aF0.07959121465682983
aF0.056676484644412994
aF0.07988162338733673
aF0.12262354046106339
aF0.10128097981214523
aF0.22345858812332153
aF0.08965623378753662
aF0.03507086634635925
aF0.225458025932312
aF0.03631818667054176
aF0.14223510026931763
aF0.0952797457575798
aF0.20489108562469482
aF0.15609245002269745
aF0.005133854690939188
aF0.11152362078428268
aF0.09040786325931549
aF0.03296693041920662
aF0.04699574410915375
aF0.10845549404621124
aF0.014451393857598305
aF0.035131968557834625
aF0.07693177461624146
aF0.06085557863116264
aF0.10754650831222534
aF0.035084739327430725
aF0.14077813923358917
aF0.0710863471031189
aF0.28996431827545166
aF0.05109423026442528
aF0.05139709636569023
aF0.06855683028697968
aF0.07399474084377289
aF0.05304478108882904
aF0.15558560192584991
aF0.09815993905067444
aF0.0911918431520462
aF0.09504574537277222
aF0.14827197790145874
aF0.07469848543405533
aF0.17489969730377197
aF0.08744005113840103
aF0.03096422180533409
aF0.1412072628736496
aF0.20619884133338928
aF0.11696155369281769
aF0.21895217895507812
aF0.0534648522734642
aF0.05396546795964241
aF0.09730833023786545
aF0.047955602407455444
aF0.5624241828918457
aF0.019233807921409607
aF0.2249370962381363
aF0.6339498162269592
aF0.04297660291194916
aF0.13016730546951294
aF0.07798252999782562
aF0.05864980071783066
aF0.25802043080329895
aF0.17254537343978882
aF0.12738759815692902
aF0.13094833493232727
aF0.05982698127627373
aF0.2751044034957886
aF0.04921550303697586
aF0.10639213025569916
aF0.09741495549678802
aF0.047691427171230316
aF0.1071595847606659
aF0.12055227905511856
aF0.02986312285065651
aF0.007007705979049206
aF0.10158020257949829
aF0.03604678809642792
aF0.011606019921600819
aF0.05652109533548355
aF0.05587984621524811
aF0.026128670200705528
aF0.15050265192985535
aF0.03045519068837166
aF0.07768476009368896
aF0.5209408402442932
aF0.0463922917842865
aF0.0965731218457222
aF0.36316347122192383
aF0.15616369247436523
aF0.08967272937297821
aF0.02722521312534809
aF0.039020393043756485
aF0.046178434044122696
aF0.054163798689842224
aF0.056608155369758606
aF0.10873966664075851
aF0.09859706461429596
aF0.0475982166826725
aF0.026699282228946686
aF0.09484056383371353
aF0.08932091295719147
aF0.21912625432014465
aF0.05677670240402222
aF0.14009131491184235
aF0.11049547791481018
aF0.07759110629558563
aF0.34902796149253845
aF0.1131541058421135
aF0.041645001620054245
aF0.017395902425050735
aF0.0721268355846405
aF0.10478828102350235
aF0.20503024756908417
aF0.07887080311775208
aF0.11673334240913391
aF0.06638321280479431
aF0.28097474575042725
aF0.1200270801782608
aF0.014025222510099411
aF0.0672513097524643
aF0.07643499970436096
aF0.063165083527565
aF0.05871354788541794
aF0.07133810967206955
aF0.09516286849975586
aF0.13718989491462708
aF0.6154364943504333
aF0.06642364710569382
aF0.05067090690135956
aF0.022692350670695305
aF0.00856443028897047
aF0.06303897500038147
aF0.4094551205635071
aF0.020334860309958458
aF0.1315024197101593
aF0.19534865021705627
aF0.10286436975002289
aF0.090067058801651
aF0.22739499807357788
aF0.5604544878005981
aF0.0735035389661789
aF0.11127933114767075
aF0.027577053755521774
aF0.10069890320301056
aF0.18150745332241058
aF0.10289636254310608
aF0.12234410643577576
aF0.07974675297737122
as.